ccopy_reg
_reconstructor
p1
(cBio.SeqRecord
SeqRecord
p2
c__builtin__
object
p3
NtRp4
(dp5
S'dbxrefs'
p6
(lp7
S'Project:168384 BioProject:PRJNA168384'
p8
asS'description'
p9
S'Cyprinus carpio wuyuanensis x Carrassius auratus mitochondrion, complete genome.'
p10
sS'annotations'
p11
(dp12
S'comment'
p13
S'REVIEWED REFSEQ: This record has been curated by NCBI staff. The\nreference sequence is identical to JN105356.\nCOMPLETENESS: full length.'
p14
sS'sequence_version'
p15
I1
sS'source'
p16
S'mitochondrion Cyprinus carpio wuyuanensis x Carrassius auratus (Wuyuan red carp x goldfish)'
p17
sS'taxonomy'
p18
(lp19
S'Eukaryota'
p20
aS'Metazoa'
p21
aS'Chordata'
p22
aS'Craniata'
p23
aS'Vertebrata'
p24
aS'Euteleostomi'
p25
aS'Actinopterygii'
p26
aS'Neopterygii'
p27
aS'Teleostei'
p28
aS'Ostariophysi'
p29
aS'Cypriniformes'
p30
aS'Cyprinidae'
p31
aS'Cyprinidae hybrid sp'
p32
asS'keywords'
p33
(lp34
S''
asS'references'
p35
(lp36
g1
(cBio.SeqFeature
Reference
p37
g3
NtRp38
(dp39
g13
S''
sS'title'
p40
S'The complete mitochondrial genome of Nuclearcytoplasmic hybrid fish (Cyprinus carpio var.wuyuanensis Carassius auratus auratus)'
p41
sS'consrtm'
p42
S''
sS'journal'
p43
S'Unpublished'
p44
sS'location'
p45
(lp46
g1
(cBio.SeqFeature
FeatureLocation
p47
g3
NtRp48
(dp49
S'ref'
p50
NsS'_end'
p51
g1
(cBio.SeqFeature
ExactPosition
p52
c__builtin__
int
p53
I16580
tRp54
sS'_start'
p55
g1
(g52
g53
I0
tRp56
sS'_strand'
p57
NsS'ref_db'
p58
NsbasS'pubmed_id'
p59
S''
sS'authors'
p60
S'Hu,G.F., Liu,X.J., Liang,H.W., Li,Z., Zou,G.W. and Pan,G.B.'
p61
sS'medline_id'
p62
S''
sbag1
(g37
g3
NtRp63
(dp64
g13
S''
sg40
S'Direct Submission'
p65
sg42
S'NCBI Genome Project'
p66
sg43
S'Submitted (13-JUN-2012) National Center for Biotechnology Information, NIH, Bethesda, MD 20894, USA'
p67
sg45
(lp68
g1
(g47
g3
NtRp69
(dp70
g50
Nsg51
g1
(g52
g53
I16580
tRp71
sg55
g1
(g52
g53
I0
tRp72
sg57
Nsg58
Nsbasg59
S''
sg60
S''
sg62
S''
sbag1
(g37
g3
NtRp73
(dp74
g13
S''
sg40
S'Direct Submission'
p75
sg42
S''
sg43
S'Submitted (17-MAY-2011) Yangtze River Fisheries Research Institute, The Chinese Academy of Fisheries Sciences, 41# Jianghan North Road, Jingzhou, Hubei 434000, China'
p76
sg45
(lp77
g1
(g47
g3
NtRp78
(dp79
g50
Nsg51
g1
(g52
g53
I16580
tRp80
sg55
g1
(g52
g53
I0
tRp81
sg57
Nsg58
Nsbasg59
S''
sg60
S'Hu,G.F., Liu,X.J., Liang,H.W., Li,Z., Zou,G.W. and Pan,G.B.'
p82
sg62
S''
sbasS'accessions'
p83
(lp84
S'NC_018038'
p85
asS'data_file_division'
p86
S'VRT'
p87
sS'date'
p88
S'02-JUL-2012'
p89
sS'organism'
p90
S'Cyprinus carpio wuyuanensis x Carrassius auratus'
p91
sS'gi'
p92
S'391223920'
p93
ssS'features'
p94
(lp95
g1
(cBio.SeqFeature
SeqFeature
p96
g3
NtRp97
(dp98
S'sub_features'
p99
(lp100
sS'location_operator'
p101
S''
sS'id'
p102
S'<unknown id>'
p103
sg45
g1
(g47
g3
NtRp104
(dp105
g50
Nsg51
g1
(g52
g53
I16580
tRp106
sg55
g1
(g52
g53
I0
tRp107
sg57
I1
sg58
NsbsS'type'
p108
S'source'
p109
sS'qualifiers'
p110
(dp111
S'note'
p112
(lp113
S"nuclearcytoplasmic hybrid fish; nucleus from Cyprinus carpio wuyuanensis, cytoplasm from Carrassius auratus'"
p114
asS'mol_type'
p115
(lp116
S'genomic DNA'
p117
asS'organelle'
p118
(lp119
S'mitochondrion'
p120
asS'db_xref'
p121
(lp122
S'taxon:1045278'
p123
asS'common'
p124
(lp125
S'Wuyuan red carp x goldfish'
p126
asS'organism'
p127
(lp128
S'Cyprinus carpio wuyuanensis x Carrassius auratus'
p129
assbag1
(g96
g3
NtRp130
(dp131
g99
(lp132
sg101
S''
sg102
g103
sg45
g1
(g47
g3
NtRp133
(dp134
g50
Nsg51
g1
(g52
g53
I69
tRp135
sg55
g1
(g52
g53
I0
tRp136
sg57
I1
sg58
Nsbsg108
S'tRNA'
p137
sg110
(dp138
S'codon_recognized'
p139
(lp140
S'UUC'
p141
asS'product'
p142
(lp143
S'tRNA-Phe'
p144
assbag1
(g96
g3
NtRp145
(dp146
g99
(lp147
sg101
S''
sg102
g103
sg45
g1
(g47
g3
NtRp148
(dp149
g50
Nsg51
g1
(g52
g53
I1024
tRp150
sg55
g1
(g52
g53
I69
tRp151
sg57
I1
sg58
Nsbsg108
S'rRNA'
p152
sg110
(dp153
S'note'
p154
(lp155
S'12S ribosomal RNA'
p156
asS'product'
p157
(lp158
S's-rRNA'
p159
assbag1
(g96
g3
NtRp160
(dp161
g99
(lp162
sg101
S''
sg102
g103
sg45
g1
(g47
g3
NtRp163
(dp164
g50
Nsg51
g1
(g52
g53
I1096
tRp165
sg55
g1
(g52
g53
I1024
tRp166
sg57
I1
sg58
Nsbsg108
S'tRNA'
p167
sg110
(dp168
S'codon_recognized'
p169
(lp170
S'GUA'
p171
asS'product'
p172
(lp173
S'tRNA-Val'
p174
assbag1
(g96
g3
NtRp175
(dp176
g99
(lp177
sg101
S''
sg102
g103
sg45
g1
(g47
g3
NtRp178
(dp179
g50
Nsg51
g1
(g52
g53
I2775
tRp180
sg55
g1
(g52
g53
I1096
tRp181
sg57
I1
sg58
Nsbsg108
S'rRNA'
p182
sg110
(dp183
S'note'
p184
(lp185
S'16S ribosomal RNA'
p186
asS'product'
p187
(lp188
S'l-rRNA'
p189
assbag1
(g96
g3
NtRp190
(dp191
g99
(lp192
sg101
S''
sg102
g103
sg45
g1
(g47
g3
NtRp193
(dp194
g50
Nsg51
g1
(g52
g53
I2851
tRp195
sg55
g1
(g52
g53
I2775
tRp196
sg57
I1
sg58
Nsbsg108
S'tRNA'
p197
sg110
(dp198
S'codon_recognized'
p199
(lp200
S'UUA'
p201
asS'product'
p202
(lp203
S'tRNA-Leu'
p204
assbag1
(g96
g3
NtRp205
(dp206
g99
(lp207
sg101
S''
sg102
g103
sg45
g1
(g47
g3
NtRp208
(dp209
g50
Nsg51
g1
(g52
g53
I3827
tRp210
sg55
g1
(g52
g53
I2852
tRp211
sg57
I1
sg58
Nsbsg108
S'gene'
p212
sg110
(dp213
S'db_xref'
p214
(lp215
S'GeneID:13080145'
p216
asS'gene'
p217
(lp218
S'ND1'
p219
assbag1
(g96
g3
NtRp220
(dp221
g99
(lp222
sg101
S''
sg102
g103
sg45
g1
(g47
g3
NtRp223
(dp224
g50
Nsg51
g1
(g52
g53
I3827
tRp225
sg55
g1
(g52
g53
I2852
tRp226
sg57
I1
sg58
Nsbsg108
S'CDS'
p227
sg110
(dp228
S'product'
p229
(lp230
S'NADH dehydrogenase subunit 1'
p231
asS'codon_start'
p232
(lp233
S'1'
asS'transl_table'
p234
(lp235
S'2'
asS'db_xref'
p236
(lp237
S'GI:391223921'
p238
aS'GeneID:13080145'
p239
asS'translation'
p240
(lp241
S'MLNILMTHLINPLAYIVPVLLAVAFLTLIERKVLGYMQLRKGPNVVGPYGLLQPIADGVKLFIKEPVRPSTSSPFLFLAAPVLALTLAMTLWAPMPMPHPVTDLNLGILFILALSSLAVYSILGSGWASNSKYALIGALRAVAQTISYEVSLGLILLSVIIFSGGYTLQTFNITQESIWLLIPAWPLAAMWYISTLAETNRAPFDLTEGESELVSGFNVEYAGGPFALFFLAEYANILLMNTLSAVLFLGASHIPSMPELTTINLMTKAALLSIMFLWVRASYPRFRYDQLMHLVWKNFLPLTLAFVLWHTALPIALAGLPPQL'
p242
asS'gene'
p243
(lp244
S'ND1'
p245
asS'protein_id'
p246
(lp247
S'YP_006460108.1'
p248
assbag1
(g96
g3
NtRp249
(dp250
g99
(lp251
sg101
S''
sg102
g103
sg45
g1
(g47
g3
NtRp252
(dp253
g50
Nsg51
g1
(g52
g53
I3903
tRp254
sg55
g1
(g52
g53
I3831
tRp255
sg57
I1
sg58
Nsbsg108
S'tRNA'
p256
sg110
(dp257
S'codon_recognized'
p258
(lp259
S'AUC'
p260
asS'product'
p261
(lp262
S'tRNA-Ile'
p263
assbag1
(g96
g3
NtRp264
(dp265
g99
(lp266
sg101
S''
sg102
g103
sg45
g1
(g47
g3
NtRp267
(dp268
g50
Nsg51
g1
(g52
g53
I3972
tRp269
sg55
g1
(g52
g53
I3901
tRp270
sg57
I-1
sg58
Nsbsg108
S'tRNA'
p271
sg110
(dp272
S'codon_recognized'
p273
(lp274
S'CAA'
p275
asS'product'
p276
(lp277
S'tRNA-Gln'
p278
assbag1
(g96
g3
NtRp279
(dp280
g99
(lp281
sg101
S''
sg102
g103
sg45
g1
(g47
g3
NtRp282
(dp283
g50
Nsg51
g1
(g52
g53
I4043
tRp284
sg55
g1
(g52
g53
I3974
tRp285
sg57
I1
sg58
Nsbsg108
S'tRNA'
p286
sg110
(dp287
S'codon_recognized'
p288
(lp289
S'AUG'
p290
asS'product'
p291
(lp292
S'tRNA-Met'
p293
assbag1
(g96
g3
NtRp294
(dp295
g99
(lp296
sg101
S''
sg102
g103
sg45
g1
(g47
g3
NtRp297
(dp298
g50
Nsg51
g1
(g52
g53
I5088
tRp299
sg55
g1
(g52
g53
I4043
tRp300
sg57
I1
sg58
Nsbsg108
S'gene'
p301
sg110
(dp302
S'db_xref'
p303
(lp304
S'GeneID:13080146'
p305
asS'gene'
p306
(lp307
S'ND2'
p308
assbag1
(g96
g3
NtRp309
(dp310
g99
(lp311
sg101
S''
sg102
g103
sg45
g1
(g47
g3
NtRp312
(dp313
g50
Nsg51
g1
(g52
g53
I5088
tRp314
sg55
g1
(g52
g53
I4043
tRp315
sg57
I1
sg58
Nsbsg108
S'CDS'
p316
sg110
(dp317
S'product'
p318
(lp319
S'NADH dehydrogenase subunit 2'
p320
asS'transl_except'
p321
(lp322
S'(pos:5088,aa:TERM)'
p323
asS'codon_start'
p324
(lp325
S'1'
asS'transl_table'
p326
(lp327
S'2'
asS'note'
p328
(lp329
S"TAA stop codon is completed by the addition of 3' A residues to the mRNA"
p330
asS'db_xref'
p331
(lp332
S'GI:391223922'
p333
aS'GeneID:13080146'
p334
asS'translation'
p335
(lp336
S'MNPYVLATLLSSLGLGTTLTFASSHWLLAWMGLEINTLAITPLMAQHHHPRAVEATTKYFLTQATAAAMILFASTTNAWMTGEWSINDLSNPIASTMFMAALALKIGLAPMHFWMPEVLQGLDLLTGLILSTWQKLAPFALIIQTAQTIDPLLLTLLGISSTLVGGWGGLNQTQLRKILAYSSIAHMGWMIIVIQYAPQLTLIALGTYIIMTSAAFLTLKMSLTTKISTLATTWSKSPILTSTTALVLLSLGGLPPLTGFMPKWLILQELTKQDLPIIATAMALTALISLYFYLRLCYAMTLTISPNMINSTTPWRTQTTQTSLPLALFTTAALGLLPMAPAILMLTT'
p337
asS'gene'
p338
(lp339
S'ND2'
p340
asS'protein_id'
p341
(lp342
S'YP_006460109.1'
p343
assbag1
(g96
g3
NtRp344
(dp345
g99
(lp346
sg101
S''
sg102
g103
sg45
g1
(g47
g3
NtRp347
(dp348
g50
Nsg51
g1
(g52
g53
I5159
tRp349
sg55
g1
(g52
g53
I5088
tRp350
sg57
I1
sg58
Nsbsg108
S'tRNA'
p351
sg110
(dp352
S'codon_recognized'
p353
(lp354
S'UGA'
p355
asS'product'
p356
(lp357
S'tRNA-Trp'
p358
assbag1
(g96
g3
NtRp359
(dp360
g99
(lp361
sg101
S''
sg102
g103
sg45
g1
(g47
g3
NtRp362
(dp363
g50
Nsg51
g1
(g52
g53
I5230
tRp364
sg55
g1
(g52
g53
I5161
tRp365
sg57
I-1
sg58
Nsbsg108
S'tRNA'
p366
sg110
(dp367
S'codon_recognized'
p368
(lp369
S'GCA'
p370
asS'product'
p371
(lp372
S'tRNA-Ala'
p373
assbag1
(g96
g3
NtRp374
(dp375
g99
(lp376
sg101
S''
sg102
g103
sg45
g1
(g47
g3
NtRp377
(dp378
g50
Nsg51
g1
(g52
g53
I5304
tRp379
sg55
g1
(g52
g53
I5231
tRp380
sg57
I-1
sg58
Nsbsg108
S'tRNA'
p381
sg110
(dp382
S'codon_recognized'
p383
(lp384
S'AAC'
p385
asS'product'
p386
(lp387
S'tRNA-Asn'
p388
assbag1
(g96
g3
NtRp389
(dp390
g99
(lp391
sg101
S''
sg102
g103
sg45
g1
(g47
g3
NtRp392
(dp393
g50
Nsg51
g1
(g52
g53
I5404
tRp394
sg55
g1
(g52
g53
I5337
tRp395
sg57
I-1
sg58
Nsbsg108
S'tRNA'
p396
sg110
(dp397
S'codon_recognized'
p398
(lp399
S'UGC'
p400
asS'product'
p401
(lp402
S'tRNA-Cys'
p403
assbag1
(g96
g3
NtRp404
(dp405
g99
(lp406
sg101
S''
sg102
g103
sg45
g1
(g47
g3
NtRp407
(dp408
g50
Nsg51
g1
(g52
g53
I5474
tRp409
sg55
g1
(g52
g53
I5403
tRp410
sg57
I-1
sg58
Nsbsg108
S'tRNA'
p411
sg110
(dp412
S'codon_recognized'
p413
(lp414
S'UAC'
p415
asS'product'
p416
(lp417
S'tRNA-Tyr'
p418
assbag1
(g96
g3
NtRp419
(dp420
g99
(lp421
sg101
S''
sg102
g103
sg45
g1
(g47
g3
NtRp422
(dp423
g50
Nsg51
g1
(g52
g53
I7026
tRp424
sg55
g1
(g52
g53
I5475
tRp425
sg57
I1
sg58
Nsbsg108
S'gene'
p426
sg110
(dp427
S'db_xref'
p428
(lp429
S'GeneID:13080147'
p430
asS'gene'
p431
(lp432
S'COX1'
p433
assbag1
(g96
g3
NtRp434
(dp435
g99
(lp436
sg101
S''
sg102
g103
sg45
g1
(g47
g3
NtRp437
(dp438
g50
Nsg51
g1
(g52
g53
I7026
tRp439
sg55
g1
(g52
g53
I5475
tRp440
sg57
I1
sg58
Nsbsg108
S'CDS'
p441
sg110
(dp442
S'product'
p443
(lp444
S'cytochrome c oxidase subunit I'
p445
asS'codon_start'
p446
(lp447
S'1'
asS'transl_table'
p448
(lp449
S'2'
asS'db_xref'
p450
(lp451
S'GI:391223923'
p452
aS'GeneID:13080147'
p453
asS'translation'
p454
(lp455
S'MAITRWFFSTNHKDIGTLYLVFGAWAGMVGTALSLLIRAELSQPGSLLGDDQIYNVIVTAHAFVMIFFMVMPILIGGFGNWLVPLMIGAPDMAFPRMNNMSFWLLPPSFLLLLASSGVEAGAGTGWTVYPPLAGNLAHAGASVDLTIFSLHLAGVSSILGAINFITTTINMKPPAISQYQTPLFVWSVLVTAVLLLLSLPVLAAGITMLLTDRNLNTTFFDPAGGGDPILYQHLFWFFGHPEVYILILPGFGIISHVVAYYSGKKEPFGYMGMVWAMMAIGLLGFIVWAHHMFTVGMDVDTRAYFTSATMIIAIPTGVKVFSWLATLHGGSIKWETPMLWALGFIFLFTVGGLTGIVLSNSSLDIVLHDTYYVVAHFHYVLSMGAVFAIMAAFVHWFPLLTGYTLHSTWTKIHFGVMFIGVNLTFFPQHFLGLAGMPRRYSDYPDAYALWNTVSSIGSLISLVAVIMFLFILWEAFAAKREVLSVELTATNVEWLHGCPPPYHTYEEPAFVQIQSN'
p456
asS'gene'
p457
(lp458
S'COX1'
p459
asS'protein_id'
p460
(lp461
S'YP_006460110.1'
p462
assbag1
(g96
g3
NtRp463
(dp464
g99
(lp465
sg101
S''
sg102
g103
sg45
g1
(g47
g3
NtRp466
(dp467
g50
Nsg51
g1
(g52
g53
I7097
tRp468
sg55
g1
(g52
g53
I7026
tRp469
sg57
I-1
sg58
Nsbsg108
S'tRNA'
p470
sg110
(dp471
S'codon_recognized'
p472
(lp473
S'UCA'
p474
asS'product'
p475
(lp476
S'tRNA-Ser'
p477
assbag1
(g96
g3
NtRp478
(dp479
g99
(lp480
sg101
S''
sg102
g103
sg45
g1
(g47
g3
NtRp481
(dp482
g50
Nsg51
g1
(g52
g53
I7172
tRp483
sg55
g1
(g52
g53
I7100
tRp484
sg57
I1
sg58
Nsbsg108
S'tRNA'
p485
sg110
(dp486
S'codon_recognized'
p487
(lp488
S'GAC'
p489
asS'product'
p490
(lp491
S'tRNA-Asp'
p492
assbag1
(g96
g3
NtRp493
(dp494
g99
(lp495
sg101
S''
sg102
g103
sg45
g1
(g47
g3
NtRp496
(dp497
g50
Nsg51
g1
(g52
g53
I7876
tRp498
sg55
g1
(g52
g53
I7185
tRp499
sg57
I1
sg58
Nsbsg108
S'gene'
p500
sg110
(dp501
S'db_xref'
p502
(lp503
S'GeneID:13080148'
p504
asS'gene'
p505
(lp506
S'COX2'
p507
assbag1
(g96
g3
NtRp508
(dp509
g99
(lp510
sg101
S''
sg102
g103
sg45
g1
(g47
g3
NtRp511
(dp512
g50
Nsg51
g1
(g52
g53
I7876
tRp513
sg55
g1
(g52
g53
I7185
tRp514
sg57
I1
sg58
Nsbsg108
S'CDS'
p515
sg110
(dp516
S'product'
p517
(lp518
S'cytochrome c oxidase subunit II'
p519
asS'transl_except'
p520
(lp521
S'(pos:7876,aa:TERM)'
p522
asS'codon_start'
p523
(lp524
S'1'
asS'transl_table'
p525
(lp526
S'2'
asS'note'
p527
(lp528
S"TAA stop codon is completed by the addition of 3' A residues to the mRNA"
p529
asS'db_xref'
p530
(lp531
S'GI:391223924'
p532
aS'GeneID:13080148'
p533
asS'translation'
p534
(lp535
S'MAHPTQLGFQDAASPVMEELLHFHDHALMIVLLISTLVLYIITAMVSTKLTNKYILDSQEIEIVWTILPAVILVLIALPSLRILYLMDEINDPHLTIKAMGHQWYWSYEYTDYENLGFDSYMVPTQDLAPGQFRLLETDHRMVVPMESPVRVLVSAEDVLHSWAVPSLGVKMDAVPGRLNQAAFIASRPGVFYGQCSEICGANHSFMPIVVEAVPLEHFENWSSLMLEDA'
p536
asS'gene'
p537
(lp538
S'COX2'
p539
asS'protein_id'
p540
(lp541
S'YP_006460111.1'
p542
assbag1
(g96
g3
NtRp543
(dp544
g99
(lp545
sg101
S''
sg102
g103
sg45
g1
(g47
g3
NtRp546
(dp547
g50
Nsg51
g1
(g52
g53
I7952
tRp548
sg55
g1
(g52
g53
I7876
tRp549
sg57
I1
sg58
Nsbsg108
S'tRNA'
p550
sg110
(dp551
S'codon_recognized'
p552
(lp553
S'AAA'
p554
asS'product'
p555
(lp556
S'tRNA-Lys'
p557
assbag1
(g96
g3
NtRp558
(dp559
g99
(lp560
sg101
S''
sg102
g103
sg45
g1
(g47
g3
NtRp561
(dp562
g50
Nsg51
g1
(g52
g53
I8118
tRp563
sg55
g1
(g52
g53
I7953
tRp564
sg57
I1
sg58
Nsbsg108
S'gene'
p565
sg110
(dp566
S'db_xref'
p567
(lp568
S'GeneID:13080149'
p569
asS'gene'
p570
(lp571
S'ATP8'
p572
assbag1
(g96
g3
NtRp573
(dp574
g99
(lp575
sg101
S''
sg102
g103
sg45
g1
(g47
g3
NtRp576
(dp577
g50
Nsg51
g1
(g52
g53
I8118
tRp578
sg55
g1
(g52
g53
I7953
tRp579
sg57
I1
sg58
Nsbsg108
S'CDS'
p580
sg110
(dp581
S'product'
p582
(lp583
S'ATP synthase F0 subunit 8'
p584
asS'codon_start'
p585
(lp586
S'1'
asS'transl_table'
p587
(lp588
S'2'
asS'db_xref'
p589
(lp590
S'GI:391223925'
p591
aS'GeneID:13080149'
p592
asS'translation'
p593
(lp594
S'MPQLNPGPWFAILVFSWLIFLTIIPTKILSHISPNEPTPVSAEKHKTESWDWPW'
p595
asS'gene'
p596
(lp597
S'ATP8'
p598
asS'protein_id'
p599
(lp600
S'YP_006460112.1'
p601
assbag1
(g96
g3
NtRp602
(dp603
g99
(lp604
sg101
S''
sg102
g103
sg45
g1
(g47
g3
NtRp605
(dp606
g50
Nsg51
g1
(g52
g53
I8795
tRp607
sg55
g1
(g52
g53
I8111
tRp608
sg57
I1
sg58
Nsbsg108
S'gene'
p609
sg110
(dp610
S'db_xref'
p611
(lp612
S'GeneID:13080150'
p613
asS'gene'
p614
(lp615
S'ATP6'
p616
assbag1
(g96
g3
NtRp617
(dp618
g99
(lp619
sg101
S''
sg102
g103
sg45
g1
(g47
g3
NtRp620
(dp621
g50
Nsg51
g1
(g52
g53
I8795
tRp622
sg55
g1
(g52
g53
I8111
tRp623
sg57
I1
sg58
Nsbsg108
S'CDS'
p624
sg110
(dp625
S'product'
p626
(lp627
S'ATP synthase F0 subunit 6'
p628
asS'codon_start'
p629
(lp630
S'1'
asS'transl_table'
p631
(lp632
S'2'
asS'db_xref'
p633
(lp634
S'GI:391223926'
p635
aS'GeneID:13080150'
p636
asS'translation'
p637
(lp638
S'MMVSFFDQFASPSYLGIPLIAIAIALPWVLYPTPSARWINNRLITIQGWFINRFTNQLMLPLNVGGHKWALLLASLMIFLITINMLGLLPYTFTPTTQLSLNMGFAVPLWLATVIIGMRNQPTVALGHLLPEGTPIPLIPVLIIIETISLFIRPLALGVRLTANLTAGHLLIQLIATAVFVLLPMMPTVAILTAAVLFLLTLLEVAVAMIQAYVFVLLLSLYLQENV'
p639
asS'gene'
p640
(lp641
S'ATP6'
p642
asS'protein_id'
p643
(lp644
S'YP_006460113.1'
p645
assbag1
(g96
g3
NtRp646
(dp647
g99
(lp648
sg101
S''
sg102
g103
sg45
g1
(g47
g3
NtRp649
(dp650
g50
Nsg51
g1
(g52
g53
I9579
tRp651
sg55
g1
(g52
g53
I8794
tRp652
sg57
I1
sg58
Nsbsg108
S'gene'
p653
sg110
(dp654
S'db_xref'
p655
(lp656
S'GeneID:13080151'
p657
asS'gene'
p658
(lp659
S'COX3'
p660
assbag1
(g96
g3
NtRp661
(dp662
g99
(lp663
sg101
S''
sg102
g103
sg45
g1
(g47
g3
NtRp664
(dp665
g50
Nsg51
g1
(g52
g53
I9579
tRp666
sg55
g1
(g52
g53
I8794
tRp667
sg57
I1
sg58
Nsbsg108
S'CDS'
p668
sg110
(dp669
S'product'
p670
(lp671
S'cytochrome c oxidase subunit III'
p672
asS'transl_except'
p673
(lp674
S'(pos:9578..9579,aa:TERM)'
p675
asS'codon_start'
p676
(lp677
S'1'
asS'transl_table'
p678
(lp679
S'2'
asS'note'
p680
(lp681
S"TAA stop codon is completed by the addition of 3' A residues to the mRNA"
p682
asS'db_xref'
p683
(lp684
S'GI:391223927'
p685
aS'GeneID:13080151'
p686
asS'translation'
p687
(lp688
S'MAHQAHAYHMVDPSPWPLTGAIAALLMTSGLAIWFHFHSTTLMTLGLILLLLTMYQWWRDIIREGTFQGHHTPPVQKGLRYGMILFITSEVFFFLGFFWAFYHSSLAPTPELGGCWPPTGITPLDPFEVPLLNTAVLLASGVTVTWAHHSIMEGERKQAIQSLALTILLGLYFTALQAMEYYEAPFTIADGVYGSTFFVATGFHGLHVIIGSTFLAVCLLRQIQYHFTSEHHFGFEAAAWYWHFVDVVWLFLYVSIYWWGS'
p689
asS'gene'
p690
(lp691
S'COX3'
p692
asS'protein_id'
p693
(lp694
S'YP_006460114.1'
p695
assbag1
(g96
g3
NtRp696
(dp697
g99
(lp698
sg101
S''
sg102
g103
sg45
g1
(g47
g3
NtRp699
(dp700
g50
Nsg51
g1
(g52
g53
I9651
tRp701
sg55
g1
(g52
g53
I9579
tRp702
sg57
I1
sg58
Nsbsg108
S'tRNA'
p703
sg110
(dp704
S'codon_recognized'
p705
(lp706
S'GGA'
p707
asS'product'
p708
(lp709
S'tRNA-Gly'
p710
assbag1
(g96
g3
NtRp711
(dp712
g99
(lp713
sg101
S''
sg102
g103
sg45
g1
(g47
g3
NtRp714
(dp715
g50
Nsg51
g1
(g52
g53
I10000
tRp716
sg55
g1
(g52
g53
I9651
tRp717
sg57
I1
sg58
Nsbsg108
S'gene'
p718
sg110
(dp719
S'db_xref'
p720
(lp721
S'GeneID:13080152'
p722
asS'gene'
p723
(lp724
S'ND3'
p725
assbag1
(g96
g3
NtRp726
(dp727
g99
(lp728
sg101
S''
sg102
g103
sg45
g1
(g47
g3
NtRp729
(dp730
g50
Nsg51
g1
(g52
g53
I10000
tRp731
sg55
g1
(g52
g53
I9651
tRp732
sg57
I1
sg58
Nsbsg108
S'CDS'
p733
sg110
(dp734
S'product'
p735
(lp736
S'NADH dehydrogenase subunit 3'
p737
asS'transl_except'
p738
(lp739
S'(pos:10000,aa:TERM)'
p740
asS'codon_start'
p741
(lp742
S'1'
asS'transl_table'
p743
(lp744
S'2'
asS'note'
p745
(lp746
S"TAA stop codon is completed by the addition of 3' A residues to the mRNA"
p747
asS'db_xref'
p748
(lp749
S'GI:391223928'
p750
aS'GeneID:13080152'
p751
asS'translation'
p752
(lp753
S'MNLIMTILTITVALSLILATVSFWLPQMNPDAEKLSPYECGFDPLGSARLPFSLRFFLVAILFLLFDLEIALLLPLPWGDQLHNPTGTFFWATTVLILLTLGLIYEWTQGGLEWAE'
p754
asS'gene'
p755
(lp756
S'ND3'
p757
asS'protein_id'
p758
(lp759
S'YP_006460115.1'
p760
assbag1
(g96
g3
NtRp761
(dp762
g99
(lp763
sg101
S''
sg102
g103
sg45
g1
(g47
g3
NtRp764
(dp765
g50
Nsg51
g1
(g52
g53
I10070
tRp766
sg55
g1
(g52
g53
I10000
tRp767
sg57
I1
sg58
Nsbsg108
S'tRNA'
p768
sg110
(dp769
S'codon_recognized'
p770
(lp771
S'CGA'
p772
asS'product'
p773
(lp774
S'tRNA-Arg'
p775
assbag1
(g96
g3
NtRp776
(dp777
g99
(lp778
sg101
S''
sg102
g103
sg45
g1
(g47
g3
NtRp779
(dp780
g50
Nsg51
g1
(g52
g53
I10367
tRp781
sg55
g1
(g52
g53
I10070
tRp782
sg57
I1
sg58
Nsbsg108
S'gene'
p783
sg110
(dp784
S'db_xref'
p785
(lp786
S'GeneID:13080153'
p787
asS'gene'
p788
(lp789
S'ND4L'
p790
assbag1
(g96
g3
NtRp791
(dp792
g99
(lp793
sg101
S''
sg102
g103
sg45
g1
(g47
g3
NtRp794
(dp795
g50
Nsg51
g1
(g52
g53
I10367
tRp796
sg55
g1
(g52
g53
I10070
tRp797
sg57
I1
sg58
Nsbsg108
S'CDS'
p798
sg110
(dp799
S'product'
p800
(lp801
S'NADH dehydrogenase subunit 4L'
p802
asS'codon_start'
p803
(lp804
S'1'
asS'transl_table'
p805
(lp806
S'2'
asS'db_xref'
p807
(lp808
S'GI:391223929'
p809
aS'GeneID:13080153'
p810
asS'translation'
p811
(lp812
S'MTPVHFSFSSAFILGLMGLAFHRTHLLSALLCLEGMMLSLFIALALWALQFESTGFSTAPMLLLAFSACEASTGLALLVATARTHGTDRLQNLNLLQC'
p813
asS'gene'
p814
(lp815
S'ND4L'
p816
asS'protein_id'
p817
(lp818
S'YP_006460116.1'
p819
assbag1
(g96
g3
NtRp820
(dp821
g99
(lp822
sg101
S''
sg102
g103
sg45
g1
(g47
g3
NtRp823
(dp824
g50
Nsg51
g1
(g52
g53
I11741
tRp825
sg55
g1
(g52
g53
I10360
tRp826
sg57
I1
sg58
Nsbsg108
S'gene'
p827
sg110
(dp828
S'db_xref'
p829
(lp830
S'GeneID:13080144'
p831
asS'gene'
p832
(lp833
S'ND4'
p834
assbag1
(g96
g3
NtRp835
(dp836
g99
(lp837
sg101
S''
sg102
g103
sg45
g1
(g47
g3
NtRp838
(dp839
g50
Nsg51
g1
(g52
g53
I11741
tRp840
sg55
g1
(g52
g53
I10360
tRp841
sg57
I1
sg58
Nsbsg108
S'CDS'
p842
sg110
(dp843
S'product'
p844
(lp845
S'NADH dehydrogenase subunit 4'
p846
asS'transl_except'
p847
(lp848
S'(pos:11741,aa:TERM)'
p849
asS'codon_start'
p850
(lp851
S'1'
asS'transl_table'
p852
(lp853
S'2'
asS'note'
p854
(lp855
S"TAA stop codon is completed by the addition of 3' A residues to the mRNA"
p856
asS'db_xref'
p857
(lp858
S'GI:391223930'
p859
aS'GeneID:13080144'
p860
asS'translation'
p861
(lp862
S'MLKVLIPTIMLFPTIWLTSPKWLWTTTTAHSLLIASISLTWLKWTSETGWTSSNMYLATDPLSTPLLVLTCWLLPLMILASQNHINPEPISRQRLYITLLASLQTFLIMAFGATEIIMFYIMFEATLIPTLIIITRWGNQTERLNAGTYFLFYTLAGSLPLLVALLLLQQSTGTLSMLVLQYSQPLQLNSWGHMFWWAGCLIAFLVKMPLYGVHLWLPKAHVEAPVAGSMVLAAVLLKLGGYGMMRMMVMLDPLSKELAYPFIILALWGIIMTGSICLRQTDLKSLIAYSSVSHMGLVAGGILIQTPWGFSGAIILMIAHGLVSSALFCLANTAYERTHSRTMILARGLQVIFPLTAVWWFIANLANLALPPLPNLMGELMIITTLFNWSPWTILLTGLGTLITAGYSLYMFLMSQRGPTPNHIMGLQPFHTREHLLMTLHLIPVILLVTKPELMWGWCY'
p863
asS'gene'
p864
(lp865
S'ND4'
p866
asS'protein_id'
p867
(lp868
S'YP_006460117.1'
p869
assbag1
(g96
g3
NtRp870
(dp871
g99
(lp872
sg101
S''
sg102
g103
sg45
g1
(g47
g3
NtRp873
(dp874
g50
Nsg51
g1
(g52
g53
I11810
tRp875
sg55
g1
(g52
g53
I11741
tRp876
sg57
I1
sg58
Nsbsg108
S'tRNA'
p877
sg110
(dp878
S'codon_recognized'
p879
(lp880
S'CAC'
p881
asS'product'
p882
(lp883
S'tRNA-His'
p884
assbag1
(g96
g3
NtRp885
(dp886
g99
(lp887
sg101
S''
sg102
g103
sg45
g1
(g47
g3
NtRp888
(dp889
g50
Nsg51
g1
(g52
g53
I11879
tRp890
sg55
g1
(g52
g53
I11810
tRp891
sg57
I1
sg58
Nsbsg108
S'tRNA'
p892
sg110
(dp893
S'codon_recognized'
p894
(lp895
S'AGC'
p896
asS'product'
p897
(lp898
S'tRNA-Ser'
p899
assbag1
(g96
g3
NtRp900
(dp901
g99
(lp902
sg101
S''
sg102
g103
sg45
g1
(g47
g3
NtRp903
(dp904
g50
Nsg51
g1
(g52
g53
I11953
tRp905
sg55
g1
(g52
g53
I11880
tRp906
sg57
I1
sg58
Nsbsg108
S'tRNA'
p907
sg110
(dp908
S'codon_recognized'
p909
(lp910
S'CUA'
p911
asS'product'
p912
(lp913
S'tRNA-Leu'
p914
assbag1
(g96
g3
NtRp915
(dp916
g99
(lp917
sg101
S''
sg102
g103
sg45
g1
(g47
g3
NtRp918
(dp919
g50
Nsg51
g1
(g52
g53
I13780
tRp920
sg55
g1
(g52
g53
I11956
tRp921
sg57
I1
sg58
Nsbsg108
S'gene'
p922
sg110
(dp923
S'db_xref'
p924
(lp925
S'GeneID:13080141'
p926
asS'gene'
p927
(lp928
S'ND5'
p929
assbag1
(g96
g3
NtRp930
(dp931
g99
(lp932
sg101
S''
sg102
g103
sg45
g1
(g47
g3
NtRp933
(dp934
g50
Nsg51
g1
(g52
g53
I13780
tRp935
sg55
g1
(g52
g53
I11956
tRp936
sg57
I1
sg58
Nsbsg108
S'CDS'
p937
sg110
(dp938
S'product'
p939
(lp940
S'NADH dehydrogenase subunit 5'
p941
asS'codon_start'
p942
(lp943
S'1'
asS'transl_table'
p944
(lp945
S'2'
asS'db_xref'
p946
(lp947
S'GI:391223931'
p948
aS'GeneID:13080141'
p949
asS'translation'
p950
(lp951
S'MTLIMHSSLLLIFFILVYPLLTTLNPNQQDSNMAGMTKIAVSSAFFVSLLPLMIFLNLKTEGIITNWQWMNTQAFDVNISFKFDHYSLIFVPIALYVTWSILEFALWYMHSDPNIDRFFKYLLTFLVAMIILVTANNMFQLFIGWEGVGIMSFLLIGWWHGRADANTAALQAVIYNRVGDIGLIMTMAWLAMNLNSWEIQQIFALSKNFDMTIPLMGLALAATGKSAQFGLHPWLPSAMEGPTPVSALLHSSTMVVAGIFLLIRLHPLMENNQLALTTCLCLGALTSLFTATCALTQNDIKKIVAFSTSSQLGLMMVTIGLNQPQLAFLHICTHAFFKAMLFLCSGSIIHSLNDEQDIRKMGGLFNIMPATSTYFTIGSLALTGTPFLAGFFSKDAIIEALNTSYLNAWALTLTLIATSFTAVYSFRLVYFVIMGTPRFLPLSPINENNPLVINSIKRLAWGSIIAGLIITQNFPPMKTPIMTMSITLKMAALMVTIAGLLVAMELANLTSKQVKITPMISTHHFSNMLGFYPMIIHRLIPKLKLTLGQSAATQLDKTWLETVGPKGLALTQMAMAKITNDITRGMIKTYLTIFLLTLILATIPVLL'
p952
asS'gene'
p953
(lp954
S'ND5'
p955
asS'protein_id'
p956
(lp957
S'YP_006460118.1'
p958
assbag1
(g96
g3
NtRp959
(dp960
g99
(lp961
sg101
S''
sg102
g103
sg45
g1
(g47
g3
NtRp962
(dp963
g50
Nsg51
g1
(g52
g53
I14298
tRp964
sg55
g1
(g52
g53
I13776
tRp965
sg57
I-1
sg58
Nsbsg108
S'gene'
p966
sg110
(dp967
S'db_xref'
p968
(lp969
S'GeneID:13080142'
p970
asS'gene'
p971
(lp972
S'ND6'
p973
assbag1
(g96
g3
NtRp974
(dp975
g99
(lp976
sg101
S''
sg102
g103
sg45
g1
(g47
g3
NtRp977
(dp978
g50
Nsg51
g1
(g52
g53
I14298
tRp979
sg55
g1
(g52
g53
I13776
tRp980
sg57
I-1
sg58
Nsbsg108
S'CDS'
p981
sg110
(dp982
S'product'
p983
(lp984
S'NADH dehydrogenase subunit 6'
p985
asS'codon_start'
p986
(lp987
S'1'
asS'transl_table'
p988
(lp989
S'2'
asS'db_xref'
p990
(lp991
S'GI:391223932'
p992
aS'GeneID:13080142'
p993
asS'translation'
p994
(lp995
S'MTYFMFLLLMALVVGLVAVASNPTPYFAALGLVVAAGVGCGVLVGHGGSFLSLVLFLIYLGGMLVVFAYSAALAAEPFPEAWGSRSVLGYVLVYLLGVGLVAGIFWGGWYEGSWVVVDGLKEFSVLRGDISGVAVMYSSGGGMLVICAWVLLLTLLVVLELTRGLSRGALRAV'
p996
asS'gene'
p997
(lp998
S'ND6'
p999
asS'protein_id'
p1000
(lp1001
S'YP_006460119.1'
p1002
assbag1
(g96
g3
NtRp1003
(dp1004
g99
(lp1005
sg101
S''
sg102
g103
sg45
g1
(g47
g3
NtRp1006
(dp1007
g50
Nsg51
g1
(g52
g53
I14367
tRp1008
sg55
g1
(g52
g53
I14298
tRp1009
sg57
I-1
sg58
Nsbsg108
S'tRNA'
p1010
sg110
(dp1011
S'codon_recognized'
p1012
(lp1013
S'GAA'
p1014
asS'product'
p1015
(lp1016
S'tRNA-Glu'
p1017
assbag1
(g96
g3
NtRp1018
(dp1019
g99
(lp1020
sg101
S''
sg102
g103
sg45
g1
(g47
g3
NtRp1021
(dp1022
g50
Nsg51
g1
(g52
g53
I15513
tRp1023
sg55
g1
(g52
g53
I14372
tRp1024
sg57
I1
sg58
Nsbsg108
S'gene'
p1025
sg110
(dp1026
S'db_xref'
p1027
(lp1028
S'GeneID:13080143'
p1029
asS'gene'
p1030
(lp1031
S'CYTB'
p1032
assbag1
(g96
g3
NtRp1033
(dp1034
g99
(lp1035
sg101
S''
sg102
g103
sg45
g1
(g47
g3
NtRp1036
(dp1037
g50
Nsg51
g1
(g52
g53
I15513
tRp1038
sg55
g1
(g52
g53
I14372
tRp1039
sg57
I1
sg58
Nsbsg108
S'CDS'
p1040
sg110
(dp1041
S'product'
p1042
(lp1043
S'cytochrome b'
p1044
asS'transl_except'
p1045
(lp1046
S'(pos:15513,aa:TERM)'
p1047
asS'codon_start'
p1048
(lp1049
S'1'
asS'transl_table'
p1050
(lp1051
S'2'
asS'note'
p1052
(lp1053
S"TAA stop codon is completed by the addition of 3' A residues to the mRNA"
p1054
asS'db_xref'
p1055
(lp1056
S'GI:391223933'
p1057
aS'GeneID:13080143'
p1058
asS'translation'
p1059
(lp1060
S'MASLRKTHPLIKIANDALVDLPTPSNISAWWNFGSLLGLCLITQILTGLFLAMHYTSDISTAFSSVTHICRDVNYGWLIRNVHANGASFFFICIYMHIARGLYYGSYLYKETWNIGVVLLLLVMMTAFVGYVLPWGQMSFWGATVITNLLSAVPYMGDMLVQWIWGGFSVDNATLTRFFAFHFLLPFVIAAATIIHLLFLHETGSNNPIGLNSDADKVSFHPYFSYKDLLGFVIMLLALTLLALFSPNLLGDPENFTPANPLVTPPHIKPEWYFLFAYAILRSIPNKLGGVLALLFSILVLMVVPLLHTSKQRGLTFRPITQFLFWTLVADMIILTWIGGMPVEHPFIIIGQIASVLYFALFLIFMPLAGWLENKALKWA'
p1061
asS'gene'
p1062
(lp1063
S'CYTB'
p1064
asS'protein_id'
p1065
(lp1066
S'YP_006460120.1'
p1067
assbag1
(g96
g3
NtRp1068
(dp1069
g99
(lp1070
sg101
S''
sg102
g103
sg45
g1
(g47
g3
NtRp1071
(dp1072
g50
Nsg51
g1
(g52
g53
I15585
tRp1073
sg55
g1
(g52
g53
I15513
tRp1074
sg57
I1
sg58
Nsbsg108
S'tRNA'
p1075
sg110
(dp1076
S'codon_recognized'
p1077
(lp1078
S'ACA'
p1079
asS'product'
p1080
(lp1081
S'tRNA-Thr'
p1082
assbag1
(g96
g3
NtRp1083
(dp1084
g99
(lp1085
sg101
S''
sg102
g103
sg45
g1
(g47
g3
NtRp1086
(dp1087
g50
Nsg51
g1
(g52
g53
I15654
tRp1088
sg55
g1
(g52
g53
I15583
tRp1089
sg57
I-1
sg58
Nsbsg108
S'tRNA'
p1090
sg110
(dp1091
S'codon_recognized'
p1092
(lp1093
S'CCA'
p1094
asS'product'
p1095
(lp1096
S'tRNA-Pro'
p1097
assbag1
(g96
g3
NtRp1098
(dp1099
g99
(lp1100
sg101
S''
sg102
g103
sg45
g1
(g47
g3
NtRp1101
(dp1102
g50
Nsg51
g1
(g52
g53
I16580
tRp1103
sg55
g1
(g52
g53
I15653
tRp1104
sg57
I1
sg58
Nsbsg108
S'D-loop'
p1105
sg110
(dp1106
sbasS'_seq'
p1107
g1
(cBio.Seq
Seq
p1108
g3
NtRp1109
(dp1110
S'alphabet'
p1111
g1
(cBio.Alphabet.IUPAC
IUPACAmbiguousDNA
p1112
g3
NtRp1113
sS'_data'
p1114
S'GCTAGCGTAGCTTAACACAAAGCATAGCACTGAAGATGCTAAGATGAGTCCTAAAAAACTCCGCATGCACAAAGGCATGGTCCCGACCTTATTATCAGCTCTAACTCAACTTACACATGCAAGTCTCCGCAACCCAGTGAATATGCCCTCAATCCCCCCACCCGGGGACGAGGAGCGGGCATCAGGCACAAACATTAGCCCAAGACGCCTAGCCAAGCCACACCCCCAAGGGAATTCAGCAGTGATAAACATTAAGCCATAAGTGAAAACTTGACTCAGTTAGTGTTAAGAGGGCCGGTAAAACTCGTGCCAGCCACCGCGGTTAGACGAGAGGCCCTAGTTGATATTACAACGGCGTAAAGGGTGGTTAAGGATAAACAAAAATAAAGTCAAATGGCCCCTTGGCCGTCATACGCTTCTAGGAGTCCGAAGCCCTAATACGAAAGTAACTTTAATAAACCCACCTGACCCCACGAAAGCTGAGAAACAAACTGGGATTAGATACCCCACTATGCTCAGCCGTAAACTCAGACATCCAGCTACAATTAGATGTCCGCCAGGGTACTACGAGCATTAGCTTAAAACCCAAAGGACCTGACGGTGTCTCAGACCCCCCTAGAGGAGCCTGTTCTAGAACCGATAACCCCCGTTCAACCTCACCACTTCTAGCCACCCCAGCCTATATACCGCCGTCGTCAGCTTACCCTGTGAAGGTAATAAAAGTAAGCAAAATGGGCACAACCCAAAACGTCAGGTCGAGGTGTAGCGCATGAAGTGGGAAGAAATGGGCTACATTTTCTAATATAGAATATTACGAACATGCACCATGAAACAATGCTTGAAGGAGGATTTAGTAGTAAAAGGGAAATAGAGTGTCCCTTTGAACCCGGCTCTGAGACGCGTACACACCGCCCGTCACTCTCCCCTGTCAAAACGCACCAAAAATACATAATACAACAGCACTGACAAGGGGAGGCAAGTCGTAACACGGTAAGTGTACCGGAAGGTGCACTTGGATCAAACCCAGGGTGTGGCTGAGTTAGTCAAGCATCTCACTTACACCGAGAAGACATCCATGCAAGTTGGATCGCCCTGAGCCAAACAGCTAGCTTAACTACTTAATAACTAAACAATATAAATAAAACAAAATAAGCCTAACACCAAAAACTAAACCATTTTTTTACCTGAGTATGGGAGACAGAAAAGGTTCCACAAAGCGATAGAAATAGTACCGCAAGGGAAAGCTGAAAGAGAAATGAAATAACCCATATAAGCACTAAAAAGCAAAGATTAAACCTCGTACCTTTTGCATCATGATTTAGCCAGTACACCCAAGCAAAGAGACCTTTAGTTTGAAACCCCGAAACCAGGTGAGCTACCCCGAGACAGCCTATTAAGGGCCAACCCGTCTCTGTGGCAAAAGAGTGGGAAGAGCTCCGGGTAGAAGTGACAGACCTACCGAACCTGGTGATAGCTGGTTGCCTAAGAAATGAATAGAAGTTCAGCCTCGTGCACCTCAAATCACACAAACAAAACAAGACTAAGAGAAACACATGAGAGTTAGTTAAAGGGGGTACAGCCCCTTTAACAAAGGACACAACCTTTCCAGGAGGATAAAGATCATAATACATAAAACATACTGTTCTAGTGGGCCTAAAAGCAGCCATCTAAACAGAAAGCGTTAAAGCTCAGACAGAAAAAAGTTTATTATCCCGATAAAAAATCTTACTCCCCTAAGTACTATTAGGCCAACCCATGCCCCCATGGAAGAGATTATGCTAAAATGAGTAACAAGAAGGCCCGCCCTTCTCCAAGCACAAGTGTAAGCCAAACCGGACCAACCATTGGCAACTAACGAACTCAATCAAAGAGAGCAATGTGAATTACAAAAAAACCAAGAAAAACCCACAACTAAGCTATCGTTACCCCCACACTGGAGTGCCCTAAAGGAAAGACTAAAAGAAAAGGAAGGAACTCGGCAAACACAAGCCTCGCCTGTTTACCAAAAACATCGCCTCCTGCAACGCAACCAAGTATAGGAGGTCCAGCCTGCCCAGTGACTACAAGTTCAACGGCCGCGGTATTTTGACCGTGCAAAGGTAGCGCAATCACTTGTCTTTTAAATAGAGACCTGTATGAATGGCTAAACGAGGGCTTAACTGTCTCCCCTTTCAAGTCAGTGAAATTGATCTACCCGTGCAGAAGCGGGTATAATACTACAAGACGAGAAGACCCTTTGGAGCTTAAGGTACAAAACTCAACCACGTTAAGCAACTCAATAAAAAGCAAAAACCTTGTGGACCATGAGATTTTACCTTCGGTTGGGGCGACCACGGAGGAAAGAAAAGCCTCCAGGTGGACTGGGAAAACCTCCTAAAACCAAGAGAGACATCTCTAAGCCACAGAACATCTGACCAAATATGATCCGGCTAACACATAGCCGATCAACGAACCAAGTTACCCTAGGGATAACAGCGCAATCCTCTCCCAGAGTCCATATCGACGAGGGGGTTTACGACCTCGATGTTGGATCAGGACATCCTAATGGTGCAGCCGCTATTAAGGGTTCGTTTGTTCAACGATTAAAGTCCTACGTGATCTGAGTTCAGACCGGAGCAATCCAGGTCAGTTTCTATCTGTAACGCTACTTTTCCTAGTACGAAAGGATCGGAAAAGAGGGGCCCATACTTAAAGCACGCCCCACCCCTAATTTATGAAAACAAATAAATAAAATAAAGGGAGAGCCAAAATCCCAGCTGGCCAAAATAAGGACATACTGGGGTGGCAGAGCATGGTAAATTGCGAAAGGCCTAAGCCCTTTTACCCAGAGGTTCAAATCCTCTTCCCAGTTTATGCTAAACATCCTAATAACTCATCTAATCAACCCTCTAGCCTATATCGTACCTGTACTTCTAGCAGTAGCCTTCCTAACACTAATCGAACGAAAAGTACTAGGATATATGCAACTACGAAAAGGACCAAACGTGGTAGGCCCCTACGGACTACTACAACCCATCGCCGACGGAGTAAAACTCTTCATTAAAGAACCCGTCCGCCCATCCACATCATCCCCATTCCTATTCCTAGCCGCCCCAGTACTTGCATTAACCCTAGCCATAACCTTATGAGCACCAATACCTATACCCCACCCAGTAACTGACCTCAACCTGGGAATCCTATTTATTCTAGCCCTATCAAGCCTTGCAGTATACTCAATCCTAGGGTCAGGATGAGCATCAAATTCAAAATATGCATTAATCGGAGCCCTACGGGCCGTAGCCCAAACAATTTCGTATGAAGTTAGCCTAGGACTAATCCTCTTATCCGTAATTATCTTCTCAGGAGGATATACCCTACAAACATTTAACATCACCCAAGAAAGCATTTGACTTCTCATCCCTGCCTGACCTTTAGCCGCAATATGATATATCTCAACATTAGCCGAAACAAACCGAGCACCATTCGACCTAACAGAAGGAGAATCAGAACTGGTATCCGGCTTCAACGTAGAATATGCAGGAGGACCCTTCGCACTCTTCTTCCTAGCCGAATACGCCAACATCCTTCTAATAAACACCCTCTCAGCCGTCCTATTTTTAGGAGCCTCACATATTCCAAGCATACCAGAACTTACGACAATTAATCTCATAACTAAAGCCGCACTACTCTCTATTATATTCCTATGAGTACGAGCCTCGTACCCACGATTCCGATACGACCAACTAATACACTTAGTATGAAAAAACTTCCTTCCCCTCACACTCGCCTTTGTACTATGACACACTGCCCTACCAATTGCACTAGCAGGGCTCCCTCCACAACTATAATTAAGGAACTGTGCCTGAGCACCTAAGGACCACTTTGATAGAGTGAATTACAGGGGTTAAAATCCCCTCAGTTCCTAGAAAGAAGGGAATTGAACCCATACTCAAGAGATCAAAACTCTTGGTGCTTCCTTTACACCACTTTCTAAAGGCGGGGTCAGCTAATAAAGCTTTCGGGCCCATACCCCGAACATGACGGTTAAAGTCCCTCCTCCGCCAATGAACCCATATGTACTCGCAACCCTATTATCCAGCCTAGGGCTAGGAACCACCCTAACCTTTGCTAGCTCTCACTGACTCCTAGCTTGAATGGGCCTAGAAATTAATACGCTAGCAATCACCCCCCTAATGGCACAACATCACCACCCCCGTGCAGTAGAAGCAACTACAAAATATTTCTTAACCCAAGCCACCGCCGCGGCAATAATCCTGTTCGCAAGCACAACAAATGCCTGAATAACAGGAGAATGAAGCATCAATGACCTGTCGAACCCCATCGCCAGCACAATATTTATAGCTGCCTTAGCACTTAAAATTGGACTTGCACCAATACACTTCTGAATACCAGAAGTTCTACAAGGATTAGACCTGCTAACAGGACTCATCTTATCCACCTGACAAAAACTCGCCCCATTCGCGCTTATTATCCAAACAGCACAAACCATCGACCCACTGCTACTAACACTATTAGGAATTTCATCCACATTAGTTGGAGGATGAGGAGGATTAAATCAAACCCAACTACGAAAAATCCTGGCCTACTCTTCAATCGCACACATAGGATGAATAATTATTGTAATCCAATACGCCCCACAACTCACCCTAATTGCACTAGGAACATATATTATCATAACCTCCGCAGCATTCCTGACCCTAAAAATATCACTAACAACCAAAATCAGCACACTCGCAACAACCTGATCAAAAAGCCCTATCCTGACATCAACAACTGCCCTAGTCCTACTCTCACTAGGAGGCCTACCACCATTAACAGGATTTATACCAAAATGACTAATTCTACAAGAACTAACAAAACAAGACCTCCCAATTATTGCCACAGCCATAGCCCTAACCGCCCTAATTAGCCTATACTTCTACCTACGCCTATGCTACGCAATAACACTGACTATTTCCCCCAATATGATTAACTCAACAACCCCCTGACGAACCCAAACAACCCAAACCTCTCTACCCTTAGCCCTATTTACCACAGCCGCCCTCGGACTCCTACCAATAGCCCCAGCTATCCTAATACTAACCACCTAGGGATTTAGGATAACATTAGACCAAAAGCCTTCAAAGCTTTAAGTAGAAGTGAAAATCTTCTAATCCCTGATTAAGGCCTACAAGATATTAACTTGCATCTCCTGATTGCAAATCAGACACTTTTATTAAGCTAAGGCCTTACTAGATGGGAAGGCCTCGATCCTACAAACTTTTAGTTAACAGCTAAACGCTCAAGCCAGCGAGCATCCATCTACTTTTCCCGCCGTTTAACTCAGTAAGGCGGGAAAAGCCCCGGCAGAGTATTAATCTGCGTCTTCGGATTTGCAATCCAATGTGTTCTTCACCACGGAGCTGATAGGAAGAGGACTCAAACCTCTGTCTTCGGGGCTACAACCCACCGCCTAAGCACTCGGCTACCCTACCTGTGGCAATCACGCGCTGATTCTTCTCTACCAACCACAAAGACATTGGCACCCTTTATCTTGTATTTGGTGCCTGAGCCGGAATAGTAGGAACCGCCTTAAGCCTCCTCATTCGGGCCGAACTTAGCCAACCCGGGTCGCTTCTAGGTGATGACCAAATTTATAACGTTATCGTCACTGCCCACGCCTTTGTAATAATTTTCTTTATAGTAATGCCTATCCTTATTGGAGGATTTGGAAACTGACTTGTACCACTAATAATCGGAGCCCCAGACATAGCATTCCCACGAATAAATAACATAAGCTTCTGACTACTACCCCCATCATTCCTTCTACTCCTAGCTTCTTCTGGTGTTGAAGCTGGAGCTGGAACAGGATGAACCGTATACCCACCTCTTGCAGGGAACTTAGCCCACGCAGGAGCATCAGTAGACCTAACAATTTTCTCACTTCACCTAGCAGGTGTTTCATCAATTCTAGGGGCAATCAACTTTATTACTACAACCATCAACATGAAACCCCCAGCCATCTCTCAATACCAAACACCCCTGTTCGTCTGATCCGTGCTTGTAACCGCCGTATTGCTCCTTCTATCATTACCTGTTTTAGCCGCAGGAATTACAATGCTCCTAACAGACCGAAACCTTAATACCACATTCTTTGACCCGGCAGGAGGAGGAGACCCAATCCTTTATCAACACTTATTCTGATTCTTCGGCCACCCAGAAGTTTATATTCTCATCCTCCCAGGATTCGGTATCATCTCCCATGTTGTAGCCTATTATTCAGGCAAAAAAGAACCGTTCGGTTACATAGGAATGGTCTGAGCCATGATGGCCATCGGTCTACTAGGGTTTATTGTGTGAGCTCACCACATGTTCACTGTTGGAATAGACGTAGATACTCGAGCATATTTTACATCCGCAACAATAATTATCGCAATTCCAACAGGTGTAAAAGTATTTAGCTGATTAGCCACACTCCACGGAGGATCCATTAAATGAGAAACACCAATACTATGGGCTCTAGGGTTTATTTTCCTATTCACAGTAGGGGGACTCACAGGGATCGTCCTATCCAATTCATCACTTGATATTGTCCTTCACGACACTTACTACGTAGTAGCACACTTCCACTATGTACTATCAATGGGTGCTGTATTTGCTATTATGGCAGCCTTTGTGCATTGATTCCCCCTATTAACTGGATATACTCTCCACAGCACCTGAACAAAAATCCACTTTGGAGTTATGTTTATTGGAGTTAACCTCACGTTCTTCCCACAACACTTCCTAGGCTTAGCCGGTATGCCACGGCGATACTCCGACTATCCAGATGCCTACGCCCTGTGAAATACAGTATCATCCATTGGATCGCTAATTTCCCTAGTAGCAGTAATCATATTCCTATTTATCCTATGAGAAGCCTTCGCCGCTAAACGAGAAGTACTATCTGTAGAACTAACAGCAACAAATGTAGAATGACTTCACGGCTGCCCTCCTCCTTATCACACATACGAGGAACCAGCATTCGTTCAAATTCAATCAAATTAACGAGAAAGGGAGGAATTGAACCCCCATATGCTGGTTTCAAGCCAGCCACATAACCACTCTGTCACTTCCTTCTAAAGACATTAGTAAAACGTAAATTACATCACCTTGTCAAGGTGAAATCGTAGGTTAAATCCCTGCATGTCTTAACCCCAAGACTTAATGGCACACCCAACGCAACTAGGATTTCAAGACGCGGCATCACCCGTTATAGAAGAACTTCTTCACTTCCACGACCACGCATTAATAATTGTGCTCCTAATTAGCACTTTAGTGTTATATATTATTACTGCAATGGTATCAACTAAACTTACTAATAAATATATTCTAGACTCCCAAGAAATCGAAATCGTATGAACCATTCTACCAGCCGTCATTTTAGTACTAATCGCCCTGCCCTCCCTACGCATCCTGTACCTTATAGACGAAATTAACGACCCCCACCTGACAATTAAAGCAATAGGACACCAATGATACTGAAGTTACGAGTATACAGACTATGAAAATCTAGGATTCGACTCCTATATAGTACCAACCCAAGACCTTGCCCCCGGACAATTCCGACTTCTGGAAACAGACCACCGAATAGTTGTTCCAATAGAATCCCCAGTCCGTGTCCTAGTATCTGCTGAAGACGTGCTACATTCTTGAGCTGTTCCATCCCTTGGCGTAAAAATGGACGCAGTCCCAGGACGACTAAATCAAGCCGCCTTTATTGCCTCACGCCCAGGGGTGTTTTACGGACAATGCTCTGAAATTTGTGGAGCTAATCACAGCTTTATACCAATTGTAGTTGAAGCAGTACCTCTCGAACACTTCGAAAACTGATCCTCATTAATACTAGAAGACGCCTCGCTAGGAAGCTAAATATTGGACAAAGCGTTGGCCTTTTAAGCCAAAGATTGGTGATTCCCGACCACCTCTAGTGAAATGCCACAATTAAACCCCGGCCCTTGATTCGCAATTTTAGTATTTTCTTGACTAATTTTCTTAACTATTATTCCAACTAAAATCTTAAGCCATATTTCACCAAATGAACCAACCCCAGTAAGTGCTGAAAAACACAAAACTGAATCCTGAGACTGACCATGATAGTAAGCTTTTTCGACCAATTTGCAAGCCCATCATATCTAGGAATTCCCCTAATTGCTATCGCAATCGCACTACCCTGAGTACTTTACCCAACCCCATCAGCTCGATGAATTAATAACCGGCTCATCACGATCCAAGGATGATTTATCAACCGATTTACTAACCAACTAATACTACCACTAAATGTAGGAGGACATAAATGAGCACTACTACTAGCCTCATTAATAATTTTCCTAATTACAATTAATATGCTTGGCTTACTACCGTATACCTTCACACCCACAACACAACTATCACTCAATATGGGATTTGCCGTGCCTCTATGACTCGCTACTGTAATTATTGGGATACGAAATCAACCAACAGTTGCCCTAGGACACCTACTACCAGAAGGAACACCCATTCCACTGATCCCAGTACTAATTATCATCGAAACAATTAGCTTATTTATCCGCCCATTAGCCCTGGGAGTCCGACTAACAGCCAATCTAACCGCAGGTCACCTGTTAATCCAACTCATCGCCACAGCTGTATTTGTTCTCCTACCAATAATACCAACAGTAGCAATCCTAACCGCTGCCGTACTCTTCCTCCTCACATTACTAGAAGTTGCAGTAGCAATAATCCAAGCTTATGTATTTGTACTTCTTCTAAGCCTATATCTACAAGAAAACGTTTAATGGCCCACCAAGCACATGCCTATCATATAGTTGATCCAAGCCCATGACCACTAACCGGAGCTATCGCTGCCCTCCTAATAACATCCGGCTTAGCAATCTGATTCCACTTCCACTCAACAACATTAATAACTTTAGGACTAATTCTCCTACTTCTTACCATATATCAATGATGACGTGACATTATCCGAGAAGGGACCTTCCAAGGCCACCACACACCGCCTGTACAAAAAGGGCTACGATATGGAATAATCCTATTTATCACCTCTGAAGTATTCTTCTTCCTAGGATTTTTCTGAGCCTTCTACCACTCAAGCCTAGCACCAACACCAGAATTAGGAGGATGCTGACCTCCCACAGGAATTACACCACTAGATCCCTTCGAAGTACCACTCCTTAATACAGCCGTTCTACTAGCATCAGGAGTCACAGTAACATGAGCTCATCACAGCATCATAGAAGGAGAACGAAAACAAGCTATTCAATCCTTAGCATTAACCATTTTACTAGGACTCTACTTCACCGCCCTCCAAGCCATGGAATACTATGAAGCACCCTTCACAATTGCAGATGGGGTTTACGGCTCAACATTCTTCGTAGCCACAGGTTTCCACGGTCTCCATGTTATTATTGGATCAACCTTCCTAGCAGTATGCCTTCTTCGCCAAATCCAATACCACTTTACATCTGAACACCATTTTGGCTTTGAAGCCGCTGCCTGATACTGACATTTTGTCGACGTAGTATGACTGTTCCTCTACGTATCCATCTATTGATGAGGCTCATAATCTTTCTAGTATCAAAGTTAGTACAAGTGACTTCCAATCACACAGTCTTGGTTAAACCCCAAGGAAAGATAATGAATCTAATTATAACTATTCTAACCATTACCGTGGCCCTATCCCTAATTCTAGCAACCGTATCCTTTTGACTACCACAAATAAATCCAGACGCAGAAAAACTATCACCATACGAATGCGGGTTTGATCCACTAGGATCTGCCCGACTACCATTTTCCCTACGCTTCTTCCTAGTAGCAATCCTATTCCTACTCTTCGATCTAGAAATTGCCCTCCTCCTCCCACTGCCCTGAGGAGACCAACTCCACAACCCCACCGGAACATTCTTCTGGGCCACAACAGTTCTAATTTTATTAACTCTAGGACTAATTTATGAATGAACACAAGGCGGCCTAGAATGAGCAGAATAGGGAGTTAGTCCAAAACAAGACCTCTGATTTCGGCTCAGAAAATCATGGTTTAATTCCATGACCCCCTTATGACACCCGTACATTTCAGCTTTAGCTCAGCATTCATTTTAGGTCTAATGGGACTAGCATTCCACCGAACCCACCTACTCTCCGCGCTACTATGCTTAGAAGGAATAATACTGTCCCTATTCATTGCACTAGCCCTATGAGCATTACAATTTGAATCCACAGGATTCTCAACAGCCCCTATACTACTACTGGCCTTTTCTGCTTGTGAAGCTAGCACCGGCTTAGCACTTTTAGTTGCTACCGCTCGCACTCACGGAACCGACCGGCTACAAAACCTTAATCTCCTACAATGCTAAAAGTACTAATCCCTACAATCATATTATTTCCAACAATTTGATTAACCTCCCCTAAGTGACTGTGGACAACTACAACTGCACACAGCCTCTTAATTGCCTCCATCAGCCTAACATGACTGAAATGAACATCCGAAACTGGGTGAACTTCCTCCAACATATACCTAGCCACAGACCCACTATCAACCCCCCTATTAGTCCTAACATGCTGACTACTCCCACTTATAATCCTAGCCAGCCAAAACCATATTAATCCCGAACCAATCAGCCGGCAACGCCTATACATCACACTCCTCGCCTCACTACAAACCTTTCTGATCATAGCATTCGGTGCCACAGAAATCATTATATTCTACATCATATTTGAAGCCACACTCATTCCAACCCTCATTATTATTACCCGCTGAGGGAACCAAACCGAACGCCTTAACGCCGGAACCTACTTCTTATTCTATACTCTAGCAGGATCCCTTCCGCTTTTAGTCGCCCTACTCCTTCTTCAACAATCCACAGGTACACTATCAATACTTGTACTACAATATTCACAACCCCTACAACTCAACTCTTGAGGTCACATGTTTTGATGAGCTGGCTGCCTAATCGCATTCCTAGTCAAGATACCACTATATGGTGTCCACCTGTGATTACCAAAAGCACACGTAGAAGCCCCCGTAGCAGGATCGATAGTACTAGCAGCAGTATTACTAAAACTTGGTGGATACGGAATAATACGTATAATAGTAATACTAGATCCCCTATCAAAAGAACTCGCCTACCCATTTATTATCCTAGCCCTCTGAGGAATCATTATAACCGGATCAATTTGCCTCCGACAAACAGACCTAAAGTCACTAATCGCTTACTCATCCGTTAGCCACATAGGATTAGTAGCAGGAGGAATCCTAATTCAAACCCCATGAGGATTCTCAGGAGCAATCATCCTAATAATTGCTCACGGACTAGTATCCTCGGCACTTTTCTGCTTAGCCAACACAGCCTATGAACGAACCCATAGCCGAACAATAATTCTCGCCCGAGGCCTACAAGTAATTTTCCCACTAACTGCAGTATGATGGTTTATCGCAAATCTAGCTAACTTAGCACTCCCGCCTCTACCCAACCTAATAGGAGAACTTATAATCATCACAACATTATTCAATTGATCCCCCTGAACAATTTTACTCACTGGCCTGGGAACACTAATCACAGCTGGCTACTCCCTATACATGTTCCTCATATCACAACGGGGCCCAACACCAAACCATATTATAGGCCTTCAACCATTCCACACCCGAGAACACCTACTAATAACTCTACACCTAATCCCTGTTATCCTCTTAGTAACAAAACCGGAACTCATGTGAGGATGATGCTATTGTAAGTATAGTTTAACTAAAACATTAGATTGTGATTCTAAAAACAGGGGTTAAAGTCCCCTTACTCACCAAGGAAGAACAGAAAATAGTAAGCACTGCTAATCCTTACGTTCCATGGTTAAAATCCGTGGCTTCCTTGCGCTTTCAAAGGATAACAGTTCATCCGTTGGTCTTAGGAACCAAAAACTCTTGGTGCAAATCCAAGTGGAAGCTAAAATGACACTAATTATACACTCATCACTCCTTCTAATCTTTTTTATCTTAGTTTACCCCCTACTCACCACATTAAACCCTAACCAGCAAGACTCCAACATAGCAGGTATAACCAAAATCGCCGTTAGCTCTGCATTCTTCGTCAGCCTCCTGCCCCTTATAATTTTCCTGAACCTAAAAACAGAAGGCATTATTACGAACTGACAATGAATAAACACCCAAGCATTTGACGTAAACATCAGTTTCAAATTCGACCACTACTCCCTAATCTTCGTCCCAATCGCCCTATACGTCACCTGATCAATTTTAGAATTCGCACTATGATATATACACTCCGACCCCAACATTGACCGATTCTTCAAATACTTACTCACATTCCTAGTAGCCATAATTATCCTAGTTACAGCCAACAACATATTCCAACTATTTATCGGCTGAGAAGGCGTAGGCATCATATCATTCCTACTCATCGGATGATGACATGGACGAGCAGACGCCAACACCGCGGCTCTCCAAGCTGTTATTTACAACCGAGTAGGAGACATTGGACTAATTATAACTATAGCCTGACTAGCAATAAACCTTAATTCCTGAGAAATTCAACAAATCTTTGCCCTGTCAAAAAACTTTGATATAACAATTCCCCTAATAGGACTTGCCCTAGCGGCAACAGGAAAATCAGCCCAATTTGGCCTCCACCCATGACTCCCGTCCGCCATGGAGGGCCCTACACCAGTGTCCGCCCTACTCCATTCAAGTACTATAGTCGTCGCAGGAATTTTCCTACTAATCCGCCTTCACCCCCTCATAGAAAACAATCAACTAGCCCTAACAACCTGCCTCTGCCTCGGAGCATTAACCTCACTATTTACAGCCACCTGCGCCCTAACCCAAAACGACATCAAAAAAATTGTAGCCTTCTCAACATCCAGCCAACTAGGACTAATAATAGTCACAATCGGACTAAACCAACCACAACTAGCATTCCTCCACATTTGCACCCATGCCTTCTTCAAGGCAATGCTCTTCCTGTGTTCAGGGTCAATCATTCACAGCCTAAATGACGAACAAGACATCCGAAAAATAGGAGGCCTATTCAACATTATGCCCGCCACCTCAACCTATTTTACAATTGGCAGCCTAGCCTTAACAGGAACCCCCTTCCTAGCAGGATTCTTCTCAAAGGACGCAATTATTGAAGCCCTAAACACCTCCTACCTAAACGCCTGAGCCCTAACCCTAACACTAATCGCTACATCATTCACCGCAGTATACAGTTTTCGACTAGTATACTTTGTAATTATAGGAACCCCACGATTCCTGCCCCTATCTCCAATCAACGAAAATAACCCACTAGTAATTAACTCCATCAAACGACTTGCCTGAGGAAGCATTATTGCAGGACTCATTATTACACAAAATTTCCCACCAATAAAAACACCAATCATAACAATATCAATCACTTTAAAAATAGCAGCCCTCATAGTAACAATTGCAGGCTTGCTAGTAGCCATAGAGCTAGCCAATTTAACAAGCAAACAAGTAAAAATCACCCCAATAATCTCCACACACCACTTCTCAAACATATTAGGATTCTACCCTATAATTATCCACCGACTTATTCCAAAACTTAAACTTACTCTAGGACAATCAGCCGCCACCCAACTAGACAAAACATGACTCGAAACCGTTGGGCCGAAAGGTTTAGCACTAACACAAATAGCCATAGCAAAAATTACAAATGACATCACACGAGGAATGATCAAAACATACCTAACCATCTTCCTCCTAACTCTAATCCTGGCCACCATCCCCGTCCTCCTTTAAACCGCACGAAGAGCTCCACGACTCAGGCCCCGAGTAAGCTCCAACACAACAAGTAAGGTTAAAAGCAATACCCAAGCACAAATAACCAACATACCCCCACCAGACGAATACATTACAGCTACCCCACTAATATCCCCACGTAAAACAGAAAATTCCTTTAACCCATCTACAACCACCCATGAACCTTCGTATCAGCCCCCTCAAAAAATCCCTGCCACTAAACCAACTCCTAATAAGTAAACTAAAACATAACCCAACACAGAACGACTCCCCCAAGCTTCCGGGAAAGGCTCGGCGGCCAAAGCTGCCGAATAAGCAAAAACCACAAGCATCCCTCCTAAATAAATTAAGAAAAGAACCAAAGATAAAAAAGAACCTCCATGACCAACCAATACCCCACACCCAACCCCAGCTGCAACCACTAAACCAAGAGCAGCAAAATAAGGCGTAGGATTAGAAGCAACAGCAACTAAGCCCACAACCAAAGCTATTAATAACAAAAACATAAAATAGGTCATAATTCTTGCTCAGACTTTAACCGAGACCAATGACTTGAAGAACCACCGTTGTTATTCAACTACAAGAACCACTAATGGCAAGCCTACGAAAAACACACCCTCTCATTAAAATCGCTAACGACGCACTAGTTGACCTACCAACACCATCCAACATCTCAGCATGATGAAACTTTGGATCCCTCCTAGGACTATGCTTAATTACCCAAATTTTAACCGGCCTATTCCTAGCCATACACTACACCTCAGACATTTCAACCGCATTCTCATCTGTTACCCACATCTGCCGAGACGTAAATTACGGCTGACTAATCCGTAATGTACACGCCAACGGAGCATCATTCTTCTTCATTTGCATTTACATACACATCGCCCGAGGCCTATACTACGGATCATACCTTTACAAAGAAACCTGAAACATTGGTGTAGTCCTTCTACTACTAGTCATGATAACAGCCTTCGTTGGCTATGTTCTTCCATGAGGACAAATATCCTTTTGAGGCGCCACAGTAATCACAAACCTCCTATCTGCCGTACCATACATGGGAGACATGTTAGTCCAATGAATCTGAGGTGGGTTCTCAGTAGACAATGCAACACTAACACGATTCTTCGCATTCCACTTCCTACTACCATTTGTTATTGCCGCCGCAACCATCATCCACCTACTGTTCCTCCACGAAACAGGATCAAACAACCCGATCGGACTAAACTCAGACGCAGACAAAGTCTCTTTCCACCCGTACTTCTCATACAAAGACCTCCTTGGGTTCGTAATTATACTCCTAGCTCTCACACTACTAGCACTATTCTCCCCTAACTTACTAGGAGACCCAGAAAACTTCACCCCCGCAAACCCTCTAGTTACACCACCCCACATCAAACCAGAATGATACTTCCTATTTGCCTACGCCATCCTACGATCAATTCCAAACAAACTCGGAGGTGTCCTTGCACTCCTATTCTCCATTCTGGTATTAATAGTAGTACCACTACTACACACCTCAAAACAACGAGGACTAACATTCCGCCCCATCACCCAATTCCTATTCTGAACCCTAGTAGCGGACATAATTATCCTAACATGAATTGGAGGCATACCAGTAGAGCATCCCTTCATCATTATTGGACAAATTGCATCCGTCCTATACTTCGCACTATTCCTCATTTTTATGCCACTAGCAGGATGGTTAGAAAATAAAGCACTAAAATGAGCTTGCCCTAGTAGCTTAGCCTAAAAGCATCGGTCTTGTAATCCGAAGATCGGAGGTTAAATTCCTCCCTAGCGCCCAGAAAGAGAGATTTTAACTCTCACCCCTGGCTCCCAAAGCCAGAATTCTAAACTAAACTATTTTCTGGGGAGGTAGCACTCCCTTTATGGTATAGTACATATTATGCATAATATTACATTAATGTATTAGTGCATATATGTATTATCACCAACTCACTATTTTAACCATAAAGCAGGTACATAATATTAAGGTAGGCATAAAGCATATTATTAAGACTCACAAATTCTATTATTTGAACCTGAGTAATATATTAATCCCCAAAAATTTGTCCTCAAATTTTTCCTTGAAATAATCAACTATAATTCCATCCAAACATATTAATGTAGTAAGAGACCACCAACCAGTTTATATAAAGGTATATCATGAATGATAGAATCAAGGACAATAATTGTGAGGGTTACACAATATGAACTATTACTGGCATCTGGTTCCTATTTCAGGGACATAACTGTAATATTCCACCCTCGGATAATTATACTGGCATCTGATTAATGGTGTAGTACATATGTTTCATTACCCCCCATGCCGAGCATTCTTTTATATGCATAAAGTATTTTTTATTGGTTTCCTTTCATCTGGCATTTCAGAGTGCAGGCTCAAATGTTAAATTAAGGTTGAACATTTTCCTTGTATGTGATAATATATATTAATTATCGTAAGACATAATTTAAGAATTACATACTTTTATCTCAAGTGCATAATATATCTGTCTCTAGTTCAACTTATCCTTACATAGTGCCCCCTTTGGTTTTTGCGCGACAAACCCCCTTACCCCCTACGCTCAGCGAATCCTGTTATCCTTGTCAAACCCCGAAACCAAGGAGGACCCAAGAACGTGTAAACCAACGAGTTGAGGTATAAATTGGCATCCCATTATATATATATATATATATGCATCGGTTTTTTTAACCGCAACTTACCACTTACCTAAAAGTCCCTACCAAAAATCCCCAAAAAGAGGCTCGACACTAAATACTCTAATATAATTAATCA'
p1115
sbsS'_per_letter_annotations'
p1116
g1
(cBio.SeqRecord
_RestrictedDict
p1117
c__builtin__
dict
p1118
(dtRp1119
(dp1120
S'_length'
p1121
I16580
sbsg102
S'NC_018038.1'
p1122
sS'name'
p1123
S'NC_018038'
p1124
sb.