ccopy_reg
_reconstructor
p1
(cBio.SeqRecord
SeqRecord
p2
c__builtin__
object
p3
NtRp4
(dp5
S'dbxrefs'
p6
(lp7
S'Project:62915 BioProject:PRJNA62915'
p8
asS'description'
p9
S'Gorilla gorilla mitochondrion, complete genome.'
p10
sS'annotations'
p11
(dp12
S'comment'
p13
S'PROVISIONAL REFSEQ: This record has not yet been subject to final\nNCBI review. The reference sequence was derived from D38114.\nCOMPLETENESS: full length.'
p14
sS'sequence_version'
p15
I1
sS'source'
p16
S'mitochondrion Gorilla gorilla (western gorilla)'
p17
sS'taxonomy'
p18
(lp19
S'Eukaryota'
p20
aS'Metazoa'
p21
aS'Chordata'
p22
aS'Craniata'
p23
aS'Vertebrata'
p24
aS'Euteleostomi'
p25
aS'Mammalia'
p26
aS'Eutheria'
p27
aS'Euarchontoglires'
p28
aS'Primates'
p29
aS'Haplorrhini'
p30
aS'Catarrhini'
p31
aS'Hominidae'
p32
aS'Gorilla'
p33
asS'keywords'
p34
(lp35
S''
asS'references'
p36
(lp37
g1
(cBio.SeqFeature
Reference
p38
g3
NtRp39
(dp40
g13
S''
sS'title'
p41
S'Recent African origin of modern humans revealed by complete sequences of hominoid mitochondrial DNAs'
p42
sS'consrtm'
p43
S''
sS'journal'
p44
S'Proc. Natl. Acad. Sci. U.S.A. 92 (2), 532-536 (1995)'
p45
sS'location'
p46
(lp47
sS'pubmed_id'
p48
S'7530363'
p49
sS'authors'
p50
S'Horai,S., Hayasaka,K., Kondo,R., Tsugane,K. and Takahata,N.'
p51
sS'medline_id'
p52
S''
sbag1
(g38
g3
NtRp53
(dp54
g13
S'Erratum:[J Mol Evol. 1993 Jul;37(1):89. PMID: 8360922]'
p55
sg41
S"Man's place in Hominoidea revealed by mitochondrial DNA genealogy"
p56
sg43
S''
sg44
S'J. Mol. Evol. 35 (1), 32-43 (1992)'
p57
sg46
(lp58
sg48
S'1518083'
p59
sg50
S'Horai,S., Satta,Y., Hayasaka,K., Kondo,R., Inoue,T., Ishida,T., Hayashi,S. and Takahata,N.'
p60
sg52
S''
sbag1
(g38
g3
NtRp61
(dp62
g13
S''
sg41
S'Comparisons of ape and human sequences that regulate mitochondrial DNA transcription and D-loop DNA synthesis'
p63
sg43
S''
sg44
S'Nucleic Acids Res. 16 (13), 5841-5861 (1988)'
p64
sg46
(lp65
sg48
S'3399380'
p66
sg50
S'Foran,D.R., Hixson,J.E. and Brown,W.M.'
p67
sg52
S''
sbag1
(g38
g3
NtRp68
(dp69
g13
S''
sg41
S'A comparison of the small ribosomal RNA genes from the mitochondrial DNA of the great apes and humans: sequence, structure, evolution, and phylogenetic implications'
p70
sg43
S''
sg44
S'Mol. Biol. Evol. 3 (1), 1-18 (1986)'
p71
sg46
(lp72
sg48
S'3444394'
p73
sg50
S'Hixson,J.E. and Brown,W.M.'
p74
sg52
S''
sbag1
(g38
g3
NtRp75
(dp76
g13
S''
sg41
S''
sg43
S''
sg44
S'Unpublished'
p77
sg46
(lp78
g1
(cBio.SeqFeature
FeatureLocation
p79
g3
NtRp80
(dp81
S'ref'
p82
NsS'_end'
p83
g1
(cBio.SeqFeature
ExactPosition
p84
c__builtin__
int
p85
I16364
tRp86
sS'_start'
p87
g1
(g84
g85
I0
tRp88
sS'_strand'
p89
NsS'ref_db'
p90
Nsbasg48
S''
sg50
S'Horai,S., Kazuo,T., Hayasaka,K., Naoyuki,T. and Rumi,K.'
p91
sg52
S''
sbag1
(g38
g3
NtRp92
(dp93
g13
S''
sg41
S'Direct Submission'
p94
sg43
S'NCBI Genome Project'
p95
sg44
S'Submitted (28-DEC-2000) National Center for Biotechnology Information, NIH, Bethesda, MD 20894, USA'
p96
sg46
(lp97
g1
(g79
g3
NtRp98
(dp99
g82
Nsg83
g1
(g84
g85
I16364
tRp100
sg87
g1
(g84
g85
I0
tRp101
sg89
Nsg90
Nsbasg48
S''
sg50
S''
sg52
S''
sbag1
(g38
g3
NtRp102
(dp103
g13
S''
sg41
S'Direct Submission'
p104
sg43
S''
sg44
S'Submitted (02-SEP-1994) Kenji Hayasaka, National Institute of Genetics, Human Genetics; 1,111 Yata, Mishima, Shizuoka 411, Japan (E-mail:khayasak@ddbj.nig.ac.jp, Tel:81-559-75-0771(ex.568))'
p105
sg46
(lp106
g1
(g79
g3
NtRp107
(dp108
g82
Nsg83
g1
(g84
g85
I16364
tRp109
sg87
g1
(g84
g85
I0
tRp110
sg89
Nsg90
Nsbasg48
S''
sg50
S'Hayasaka,K.'
p111
sg52
S''
sbasS'accessions'
p112
(lp113
S'NC_001645'
p114
asS'data_file_division'
p115
S'PRI'
p116
sS'date'
p117
S'14-FEB-2011'
p118
sS'organism'
p119
S'Gorilla gorilla'
p120
sS'gi'
p121
S'5835149'
p122
ssS'features'
p123
(lp124
g1
(cBio.SeqFeature
SeqFeature
p125
g3
NtRp126
(dp127
S'sub_features'
p128
(lp129
sS'location_operator'
p130
S''
sS'id'
p131
S'<unknown id>'
p132
sg46
g1
(g79
g3
NtRp133
(dp134
g82
Nsg83
g1
(g84
g85
I16364
tRp135
sg87
g1
(g84
g85
I0
tRp136
sg89
I1
sg90
NsbsS'type'
p137
S'source'
p138
sS'qualifiers'
p139
(dp140
S'organelle'
p141
(lp142
S'mitochondrion'
p143
asS'db_xref'
p144
(lp145
S'taxon:9593'
p146
asS'mol_type'
p147
(lp148
S'genomic DNA'
p149
asS'organism'
p150
(lp151
S'Gorilla gorilla'
p152
assbag1
(g125
g3
NtRp153
(dp154
g128
(lp155
sg130
S''
sg131
g132
sg46
g1
(g79
g3
NtRp156
(dp157
g82
Nsg83
g1
(g84
g85
I71
tRp158
sg87
g1
(g84
g85
I0
tRp159
sg89
I1
sg90
Nsbsg137
S'tRNA'
p160
sg139
(dp161
S'product'
p162
(lp163
S'tRNA-Phe'
p164
assbag1
(g125
g3
NtRp165
(dp166
g128
(lp167
sg130
S''
sg131
g132
sg46
g1
(g79
g3
NtRp168
(dp169
g82
Nsg83
g1
(g84
g85
I1020
tRp170
sg87
g1
(g84
g85
I71
tRp171
sg89
I1
sg90
Nsbsg137
S'rRNA'
p172
sg139
(dp173
S'product'
p174
(lp175
S'12S ribosomal RNA'
p176
assbag1
(g125
g3
NtRp177
(dp178
g128
(lp179
sg130
S''
sg131
g132
sg46
g1
(g79
g3
NtRp180
(dp181
g82
Nsg83
g1
(g84
g85
I1089
tRp182
sg87
g1
(g84
g85
I1020
tRp183
sg89
I1
sg90
Nsbsg137
S'tRNA'
p184
sg139
(dp185
S'product'
p186
(lp187
S'tRNA-Val'
p188
assbag1
(g125
g3
NtRp189
(dp190
g128
(lp191
sg130
S''
sg131
g132
sg46
g1
(g79
g3
NtRp192
(dp193
g82
Nsg83
g1
(g84
g85
I2647
tRp194
sg87
g1
(g84
g85
I1089
tRp195
sg89
I1
sg90
Nsbsg137
S'rRNA'
p196
sg139
(dp197
S'product'
p198
(lp199
S'16S ribosomal RNA'
p200
assbag1
(g125
g3
NtRp201
(dp202
g128
(lp203
sg130
S''
sg131
g132
sg46
g1
(g79
g3
NtRp204
(dp205
g82
Nsg83
g1
(g84
g85
I2303
tRp206
sg87
g1
(g84
g85
I2130
tRp207
sg89
I1
sg90
Nsbsg137
S'STS'
p208
sg139
(dp209
S'db_xref'
p210
(lp211
S'UniSTS:56529'
p212
asS'standard_name'
p213
(lp214
S'NIB250'
p215
assbag1
(g125
g3
NtRp216
(dp217
g128
(lp218
sg130
S''
sg131
g132
sg46
g1
(g79
g3
NtRp219
(dp220
g82
Nsg83
g1
(g84
g85
I2722
tRp221
sg87
g1
(g84
g85
I2647
tRp222
sg89
I1
sg90
Nsbsg137
S'tRNA'
p223
sg139
(dp224
S'codon_recognized'
p225
(lp226
S'UUR'
p227
asS'product'
p228
(lp229
S'tRNA-Leu'
p230
assbag1
(g125
g3
NtRp231
(dp232
g128
(lp233
sg130
S''
sg131
g132
sg46
g1
(g79
g3
NtRp234
(dp235
g82
Nsg83
g1
(g84
g85
I3681
tRp236
sg87
g1
(g84
g85
I2724
tRp237
sg89
I1
sg90
Nsbsg137
S'gene'
p238
sg139
(dp239
S'db_xref'
p240
(lp241
S'GeneID:807893'
p242
asS'gene'
p243
(lp244
S'ND1'
p245
assbag1
(g125
g3
NtRp246
(dp247
g128
(lp248
sg130
S''
sg131
g132
sg46
g1
(g79
g3
NtRp249
(dp250
g82
Nsg83
g1
(g84
g85
I3681
tRp251
sg87
g1
(g84
g85
I2724
tRp252
sg89
I1
sg90
Nsbsg137
S'CDS'
p253
sg139
(dp254
S'product'
p255
(lp256
S'NADH dehydrogenase subunit 1'
p257
asS'codon_start'
p258
(lp259
S'1'
asS'transl_table'
p260
(lp261
S'2'
asS'db_xref'
p262
(lp263
S'GI:5835155'
p264
aS'GeneID:807893'
p265
asS'translation'
p266
(lp267
S'MSMANLLLLIVPILIAMAFLMLTERKILGYMQLRKGPNVVGPYGLLQPFADAMKLFTKEPLKPSTSTITLYITAPTLALTIALLLWTPLPMPNPLVNLNLGLLFILATSSLAVYSILWSGWASNSNYALIGALRAVAQTISYEVTLAIILLSTLLMNGSFNLSTLIMTQEHLWLLLPTWPLAMMWFISTLAETNRTPFDLAEGESELVSGFNIEYAAGPLALFFMAEYMNIIMMNTLTTMIFLGTTYNAHSPELYTVCFITKTLLLTSLFLWIRTAYPRFRYDQLMHLLWKNFLPLTLALLMWYISMPTTISSIPPQT'
p268
asS'gene'
p269
(lp270
S'ND1'
p271
asS'protein_id'
p272
(lp273
S'NP_008212.1'
p274
assbag1
(g125
g3
NtRp275
(dp276
g128
(lp277
sg130
S''
sg131
g132
sg46
g1
(g79
g3
NtRp278
(dp279
g82
Nsg83
g1
(g84
g85
I3749
tRp280
sg87
g1
(g84
g85
I3680
tRp281
sg89
I1
sg90
Nsbsg137
S'tRNA'
p282
sg139
(dp283
S'product'
p284
(lp285
S'tRNA-Ile'
p286
assbag1
(g125
g3
NtRp287
(dp288
g128
(lp289
sg130
S''
sg131
g132
sg46
g1
(g79
g3
NtRp290
(dp291
g82
Nsg83
g1
(g84
g85
I3818
tRp292
sg87
g1
(g84
g85
I3746
tRp293
sg89
I-1
sg90
Nsbsg137
S'tRNA'
p294
sg139
(dp295
S'product'
p296
(lp297
S'tRNA-Gln'
p298
assbag1
(g125
g3
NtRp299
(dp300
g128
(lp301
sg130
S''
sg131
g132
sg46
g1
(g79
g3
NtRp302
(dp303
g82
Nsg83
g1
(g84
g85
I3887
tRp304
sg87
g1
(g84
g85
I3819
tRp305
sg89
I1
sg90
Nsbsg137
S'tRNA'
p306
sg139
(dp307
S'product'
p308
(lp309
S'tRNA-Met'
p310
assbag1
(g125
g3
NtRp311
(dp312
g128
(lp313
sg130
S''
sg131
g132
sg46
g1
(g79
g3
NtRp314
(dp315
g82
Nsg83
g1
(g84
g85
I4931
tRp316
sg87
g1
(g84
g85
I3887
tRp317
sg89
I1
sg90
Nsbsg137
S'gene'
p318
sg139
(dp319
S'db_xref'
p320
(lp321
S'GeneID:807892'
p322
asS'gene'
p323
(lp324
S'ND2'
p325
assbag1
(g125
g3
NtRp326
(dp327
g128
(lp328
sg130
S''
sg131
g132
sg46
g1
(g79
g3
NtRp329
(dp330
g82
Nsg83
g1
(g84
g85
I4931
tRp331
sg87
g1
(g84
g85
I3887
tRp332
sg89
I1
sg90
Nsbsg137
S'CDS'
p333
sg139
(dp334
S'product'
p335
(lp336
S'NADH dehydrogenase subunit 2'
p337
asS'codon_start'
p338
(lp339
S'1'
asS'transl_table'
p340
(lp341
S'2'
asS'db_xref'
p342
(lp343
S'GI:5835156'
p344
aS'GeneID:807892'
p345
asS'translation'
p346
(lp347
S'MNPLAQPIIYSTIFAGTLITALSSHWFFAWVGLEMNMLAFIPVLTKKMNPRSTEAAIKYFLTQATASMILLMAILSNNMLSGQWTTTNATNQYSSLMIVVAMAMKLGMAPFHFWVPEVTQGTPLMSGLLLLTWQKLAPMSIMYQISSSTNVSLLLTLSILSILAGSWGGLNQTQLRKILAYSSITHVGWMMAVLPYNPNMTILNLTIYIILTTTTFLLLNLSSSTTTLLLSRTWNKLTWLTPLIPSTLLSLGGLPPLTGFLPKWLIIEEFTKNNDLITPTIMAIITLLNLYFYLRLIYSTSITLLPMSNNVKMKWQLEYTKPTPFLPTLITLTTLLLPISPFMLMVL'
p348
asS'gene'
p349
(lp350
S'ND2'
p351
asS'protein_id'
p352
(lp353
S'NP_008213.1'
p354
assbag1
(g125
g3
NtRp355
(dp356
g128
(lp357
sg130
S''
sg131
g132
sg46
g1
(g79
g3
NtRp358
(dp359
g82
Nsg83
g1
(g84
g85
I4997
tRp360
sg87
g1
(g84
g85
I4929
tRp361
sg89
I1
sg90
Nsbsg137
S'tRNA'
p362
sg139
(dp363
S'product'
p364
(lp365
S'tRNA-Trp'
p366
assbag1
(g125
g3
NtRp367
(dp368
g128
(lp369
sg130
S''
sg131
g132
sg46
g1
(g79
g3
NtRp370
(dp371
g82
Nsg83
g1
(g84
g85
I5073
tRp372
sg87
g1
(g84
g85
I5004
tRp373
sg89
I-1
sg90
Nsbsg137
S'tRNA'
p374
sg139
(dp375
S'product'
p376
(lp377
S'tRNA-Ala'
p378
assbag1
(g125
g3
NtRp379
(dp380
g128
(lp381
sg130
S''
sg131
g132
sg46
g1
(g79
g3
NtRp382
(dp383
g82
Nsg83
g1
(g84
g85
I5147
tRp384
sg87
g1
(g84
g85
I5074
tRp385
sg89
I-1
sg90
Nsbsg137
S'tRNA'
p386
sg139
(dp387
S'product'
p388
(lp389
S'tRNA-Asn'
p390
assbag1
(g125
g3
NtRp391
(dp392
g128
(lp393
sg130
S''
sg131
g132
sg46
g1
(g79
g3
NtRp394
(dp395
g82
Nsg83
g1
(g84
g85
I5244
tRp396
sg87
g1
(g84
g85
I5178
tRp397
sg89
I-1
sg90
Nsbsg137
S'tRNA'
p398
sg139
(dp399
S'product'
p400
(lp401
S'tRNA-Cys'
p402
assbag1
(g125
g3
NtRp403
(dp404
g128
(lp405
sg130
S''
sg131
g132
sg46
g1
(g79
g3
NtRp406
(dp407
g82
Nsg83
g1
(g84
g85
I5309
tRp408
sg87
g1
(g84
g85
I5243
tRp409
sg89
I-1
sg90
Nsbsg137
S'tRNA'
p410
sg139
(dp411
S'product'
p412
(lp413
S'tRNA-Tyr'
p414
assbag1
(g125
g3
NtRp415
(dp416
g128
(lp417
sg130
S''
sg131
g132
sg46
g1
(g79
g3
NtRp418
(dp419
g82
Nsg83
g1
(g84
g85
I6864
tRp420
sg87
g1
(g84
g85
I5324
tRp421
sg89
I1
sg90
Nsbsg137
S'gene'
p422
sg139
(dp423
S'db_xref'
p424
(lp425
S'GeneID:807895'
p426
asS'gene'
p427
(lp428
S'COX1'
p429
assbag1
(g125
g3
NtRp430
(dp431
g128
(lp432
sg130
S''
sg131
g132
sg46
g1
(g79
g3
NtRp433
(dp434
g82
Nsg83
g1
(g84
g85
I6864
tRp435
sg87
g1
(g84
g85
I5324
tRp436
sg89
I1
sg90
Nsbsg137
S'CDS'
p437
sg139
(dp438
S'product'
p439
(lp440
S'cytochrome c oxidase subunit I'
p441
asS'transl_except'
p442
(lp443
S'(pos:6864,aa:TERM)'
p444
asS'codon_start'
p445
(lp446
S'1'
asS'transl_table'
p447
(lp448
S'2'
asS'note'
p449
(lp450
S"TAA stop codon is completed by the addition of 3' A residues to the mRNA"
p451
asS'db_xref'
p452
(lp453
S'GI:5835157'
p454
aS'GeneID:807895'
p455
asS'translation'
p456
(lp457
S'MFTDRWLFSTNHKDIGTLYLLFGAWAGVLGTALSLLIRAELGQPGNLLGNDHIYNVIVTAHAFVMIFFMVMPIMIGGFGNWLVPLMIGAPDMAFPRMNNMSFWLLPPSFLLLLASAMVEAGAGTGWTVYPPLAGNYSHPGASVDLTIFSLHLAGISSILGAINFITTIINMKPPAMTQYQTPLFVWSVLITAVLLLLSLPVLAAGITMLLTDRNLNTTFFDPAGGGDPILYQHLFWFFGHPEVYILILPGFGMISHIVTYYSGKKEPFGYMGMVWAMMSIGFLGFIVWAHHMFTVGMDVDTRAYFTSATMIIAIPTGVKVFSWLATLHGSNTKWSAAMLWALGFIFLFTVGGLTGIVLANSSLDIVLHDTYYVVAHFHYVLSMGAVFAIMGGFIHWFPLFSGYTLDQTYAKIHFAIMFIGVNLTFFPQHFLGLSGMPRHYSDYPDAYTTWNILSSVGSFISLTAVMLMIFMIWEAFASKRKVLMIEEPSTNLEWLYGCPPPYHTFEESVYMKS'
p458
asS'gene'
p459
(lp460
S'COX1'
p461
asS'protein_id'
p462
(lp463
S'NP_008214.1'
p464
assbag1
(g125
g3
NtRp465
(dp466
g128
(lp467
sg130
S''
sg131
g132
sg46
g1
(g79
g3
NtRp468
(dp469
g82
Nsg83
g1
(g84
g85
I6937
tRp470
sg87
g1
(g84
g85
I6865
tRp471
sg89
I-1
sg90
Nsbsg137
S'tRNA'
p472
sg139
(dp473
S'codon_recognized'
p474
(lp475
S'UCN'
p476
asS'product'
p477
(lp478
S'tRNA-Ser'
p479
assbag1
(g125
g3
NtRp480
(dp481
g128
(lp482
sg130
S''
sg131
g132
sg46
g1
(g79
g3
NtRp483
(dp484
g82
Nsg83
g1
(g84
g85
I7006
tRp485
sg87
g1
(g84
g85
I6938
tRp486
sg89
I1
sg90
Nsbsg137
S'tRNA'
p487
sg139
(dp488
S'product'
p489
(lp490
S'tRNA-Asp'
p491
assbag1
(g125
g3
NtRp492
(dp493
g128
(lp494
sg130
S''
sg131
g132
sg46
g1
(g79
g3
NtRp495
(dp496
g82
Nsg83
g1
(g84
g85
I7690
tRp497
sg87
g1
(g84
g85
I7006
tRp498
sg89
I1
sg90
Nsbsg137
S'gene'
p499
sg139
(dp500
S'db_xref'
p501
(lp502
S'GeneID:807894'
p503
asS'gene'
p504
(lp505
S'COX2'
p506
assbag1
(g125
g3
NtRp507
(dp508
g128
(lp509
sg130
S''
sg131
g132
sg46
g1
(g79
g3
NtRp510
(dp511
g82
Nsg83
g1
(g84
g85
I7690
tRp512
sg87
g1
(g84
g85
I7006
tRp513
sg89
I1
sg90
Nsbsg137
S'CDS'
p514
sg139
(dp515
S'product'
p516
(lp517
S'cytochrome c oxidase subunit II'
p518
asS'codon_start'
p519
(lp520
S'1'
asS'transl_table'
p521
(lp522
S'2'
asS'db_xref'
p523
(lp524
S'GI:5835150'
p525
aS'GeneID:807894'
p526
asS'translation'
p527
(lp528
S'MAHAAQVGLQDATSPIMEELIIFHDHALMIIFLICFLVLYALFLTLTTKLTNNNISDAQEMETIWTILPAIILVLIALPSLRILYMTDEINDPSFTIKSIGHQWYWTYEYTDYGGLIFNSYMLPPLFLEPGDLRLLDVDNRVVLPVEAPVRMMITSQDVLHSWAVPTLGLKTDAIPGRLNQTTFTATRPGVYYGQCSEICGANHSFMPIVLELIPLKIFEMGPVFAL'
p529
asS'gene'
p530
(lp531
S'COX2'
p532
asS'protein_id'
p533
(lp534
S'NP_008215.1'
p535
assbag1
(g125
g3
NtRp536
(dp537
g128
(lp538
sg130
S''
sg131
g132
sg46
g1
(g79
g3
NtRp539
(dp540
g82
Nsg83
g1
(g84
g85
I7786
tRp541
sg87
g1
(g84
g85
I7716
tRp542
sg89
I1
sg90
Nsbsg137
S'tRNA'
p543
sg139
(dp544
S'product'
p545
(lp546
S'tRNA-Lys'
p547
assbag1
(g125
g3
NtRp548
(dp549
g128
(lp550
sg130
S''
sg131
g132
sg46
g1
(g79
g3
NtRp551
(dp552
g82
Nsg83
g1
(g84
g85
I7994
tRp553
sg87
g1
(g84
g85
I7787
tRp554
sg89
I1
sg90
Nsbsg137
S'gene'
p555
sg139
(dp556
S'db_xref'
p557
(lp558
S'GeneID:807890'
p559
asS'gene'
p560
(lp561
S'ATP8'
p562
assbag1
(g125
g3
NtRp563
(dp564
g128
(lp565
sg130
S''
sg131
g132
sg46
g1
(g79
g3
NtRp566
(dp567
g82
Nsg83
g1
(g84
g85
I7994
tRp568
sg87
g1
(g84
g85
I7787
tRp569
sg89
I1
sg90
Nsbsg137
S'CDS'
p570
sg139
(dp571
S'product'
p572
(lp573
S'ATP synthase F0 subunit 8'
p574
asS'codon_start'
p575
(lp576
S'1'
asS'transl_table'
p577
(lp578
S'2'
asS'db_xref'
p579
(lp580
S'GI:5835151'
p581
aS'GeneID:807890'
p582
asS'translation'
p583
(lp584
S'MPQLNTTVWPTMIAPMLLTLFLITQLKVLNTNYHLPPLPKTMKMKNFCKPWEPKWTKIYSLHSLPPQS'
p585
asS'gene'
p586
(lp587
S'ATP8'
p588
asS'protein_id'
p589
(lp590
S'NP_008216.1'
p591
assbag1
(g125
g3
NtRp592
(dp593
g128
(lp594
sg130
S''
sg131
g132
sg46
g1
(g79
g3
NtRp595
(dp596
g82
Nsg83
g1
(g84
g85
I8629
tRp597
sg87
g1
(g84
g85
I7948
tRp598
sg89
I1
sg90
Nsbsg137
S'gene'
p599
sg139
(dp600
S'db_xref'
p601
(lp602
S'GeneID:807887'
p603
asS'gene'
p604
(lp605
S'ATP6'
p606
assbag1
(g125
g3
NtRp607
(dp608
g128
(lp609
sg130
S''
sg131
g132
sg46
g1
(g79
g3
NtRp610
(dp611
g82
Nsg83
g1
(g84
g85
I8629
tRp612
sg87
g1
(g84
g85
I7948
tRp613
sg89
I1
sg90
Nsbsg137
S'CDS'
p614
sg139
(dp615
S'product'
p616
(lp617
S'ATP synthase F0 subunit 6'
p618
asS'codon_start'
p619
(lp620
S'1'
asS'transl_table'
p621
(lp622
S'2'
asS'db_xref'
p623
(lp624
S'GI:5835158'
p625
aS'GeneID:807887'
p626
asS'translation'
p627
(lp628
S'MNENLFASFIAPTILGLPAAVLIILLPPLLIPTSKYLINNRLIATQQWLIQLTSKQMMTMHNAKGRTWSLMLMWLIIFIATTNLLGLLPHSFTPTTQLSMNLAMAIPLWAGAVTTGFRSKTKNALAHLLPQGTPTPLIPMLVIIETISLFIQPMALAVRLTANITAGHLLMHLIGSATLAMSTTNLPSTLIIFTVLILLTMLEIAVALIQAYVFTLLVSLYLHENT'
p629
asS'gene'
p630
(lp631
S'ATP6'
p632
asS'protein_id'
p633
(lp634
S'NP_008217.1'
p635
assbag1
(g125
g3
NtRp636
(dp637
g128
(lp638
sg130
S''
sg131
g132
sg46
g1
(g79
g3
NtRp639
(dp640
g82
Nsg83
g1
(g84
g85
I9412
tRp641
sg87
g1
(g84
g85
I8628
tRp642
sg89
I1
sg90
Nsbsg137
S'gene'
p643
sg139
(dp644
S'db_xref'
p645
(lp646
S'GeneID:807886'
p647
asS'gene'
p648
(lp649
S'COX3'
p650
assbag1
(g125
g3
NtRp651
(dp652
g128
(lp653
sg130
S''
sg131
g132
sg46
g1
(g79
g3
NtRp654
(dp655
g82
Nsg83
g1
(g84
g85
I9412
tRp656
sg87
g1
(g84
g85
I8628
tRp657
sg89
I1
sg90
Nsbsg137
S'CDS'
p658
sg139
(dp659
S'product'
p660
(lp661
S'cytochrome c oxidase subunit III'
p662
asS'transl_except'
p663
(lp664
S'(pos:9412,aa:TERM)'
p665
asS'codon_start'
p666
(lp667
S'1'
asS'transl_table'
p668
(lp669
S'2'
asS'note'
p670
(lp671
S"TAA stop codon is completed by the addition of 3' A residues to the mRNA"
p672
asS'db_xref'
p673
(lp674
S'GI:5835159'
p675
aS'GeneID:807886'
p676
asS'translation'
p677
(lp678
S'MIHQSHAYHMVKPSPWPLTGALSALLMTSGLAMWFHFHSTTLLMLGLLTNMLTMYQWWRDVMRESTYQGHHTLPVQKGLRYGMILFITSEVFFFAGFFWAFYHSSLAPTPQLGAHWPPTGITPLNPLEVPLLNTSVLLASGVSITWAHHSLMENNRNQMIQALLITILLGLYFTLLQASEYFEAPFTISDGIYGSTFFVATGFHGLHVIIGSTFLTICLIRQLMFHFTSKHHFGFEAAAWYWHFVDVVWLFLYVSIYWWGS'
p679
asS'gene'
p680
(lp681
S'COX3'
p682
asS'protein_id'
p683
(lp684
S'NP_008218.1'
p685
assbag1
(g125
g3
NtRp686
(dp687
g128
(lp688
sg130
S''
sg131
g132
sg46
g1
(g79
g3
NtRp689
(dp690
g82
Nsg83
g1
(g84
g85
I9480
tRp691
sg87
g1
(g84
g85
I9412
tRp692
sg89
I1
sg90
Nsbsg137
S'tRNA'
p693
sg139
(dp694
S'product'
p695
(lp696
S'tRNA-Gly'
p697
assbag1
(g125
g3
NtRp698
(dp699
g128
(lp700
sg130
S''
sg131
g132
sg46
g1
(g79
g3
NtRp701
(dp702
g82
Nsg83
g1
(g84
g85
I9826
tRp703
sg87
g1
(g84
g85
I9480
tRp704
sg89
I1
sg90
Nsbsg137
S'gene'
p705
sg139
(dp706
S'db_xref'
p707
(lp708
S'GeneID:807897'
p709
asS'gene'
p710
(lp711
S'ND3'
p712
assbag1
(g125
g3
NtRp713
(dp714
g128
(lp715
sg130
S''
sg131
g132
sg46
g1
(g79
g3
NtRp716
(dp717
g82
Nsg83
g1
(g84
g85
I9826
tRp718
sg87
g1
(g84
g85
I9480
tRp719
sg89
I1
sg90
Nsbsg137
S'CDS'
p720
sg139
(dp721
S'product'
p722
(lp723
S'NADH dehydrogenase subunit 3'
p724
asS'transl_except'
p725
(lp726
S'(pos:9826,aa:TERM)'
p727
asS'codon_start'
p728
(lp729
S'1'
asS'transl_table'
p730
(lp731
S'2'
asS'note'
p732
(lp733
S"TAA stop codon is completed by the addition of 3' A residues to the mRNA"
p734
asS'db_xref'
p735
(lp736
S'GI:5835160'
p737
aS'GeneID:807897'
p738
asS'translation'
p739
(lp740
S'MNFALILMTNTLLALLLMIITFWLPQLNSYMEKTNPYECGFDPVSPARIPFSMKFFLVAITFLLFDLEIALLLPLPWALQTTNLPLMVMSSLLLIIILTLSLAYEWLQKGLDWTE'
p741
asS'gene'
p742
(lp743
S'ND3'
p744
asS'protein_id'
p745
(lp746
S'NP_008219.1'
p747
assbag1
(g125
g3
NtRp748
(dp749
g128
(lp750
sg130
S''
sg131
g132
sg46
g1
(g79
g3
NtRp751
(dp752
g82
Nsg83
g1
(g84
g85
I9891
tRp753
sg87
g1
(g84
g85
I9826
tRp754
sg89
I1
sg90
Nsbsg137
S'tRNA'
p755
sg139
(dp756
S'product'
p757
(lp758
S'tRNA-Arg'
p759
assbag1
(g125
g3
NtRp760
(dp761
g128
(lp762
sg130
S''
sg131
g132
sg46
g1
(g79
g3
NtRp763
(dp764
g82
Nsg83
g1
(g84
g85
I10188
tRp765
sg87
g1
(g84
g85
I9891
tRp766
sg89
I1
sg90
Nsbsg137
S'gene'
p767
sg139
(dp768
S'db_xref'
p769
(lp770
S'GeneID:807898'
p771
asS'gene'
p772
(lp773
S'ND4L'
p774
assbag1
(g125
g3
NtRp775
(dp776
g128
(lp777
sg130
S''
sg131
g132
sg46
g1
(g79
g3
NtRp778
(dp779
g82
Nsg83
g1
(g84
g85
I10188
tRp780
sg87
g1
(g84
g85
I9891
tRp781
sg89
I1
sg90
Nsbsg137
S'CDS'
p782
sg139
(dp783
S'product'
p784
(lp785
S'NADH dehydrogenase subunit 4L'
p786
asS'codon_start'
p787
(lp788
S'1'
asS'transl_table'
p789
(lp790
S'2'
asS'db_xref'
p791
(lp792
S'GI:5835152'
p793
aS'GeneID:807898'
p794
asS'translation'
p795
(lp796
S'MPLIYMNIMLAFTISLLGMLVYRSHLMSSLLCLEGMMLSLFIMATLMTLNTHFLLANIVPITMLVFAACEAAVGLALLVSISNTYGLDYVQNLNLLQC'
p797
asS'gene'
p798
(lp799
S'ND4L'
p800
asS'protein_id'
p801
(lp802
S'NP_008220.1'
p803
assbag1
(g125
g3
NtRp804
(dp805
g128
(lp806
sg130
S''
sg131
g132
sg46
g1
(g79
g3
NtRp807
(dp808
g82
Nsg83
g1
(g84
g85
I11559
tRp809
sg87
g1
(g84
g85
I10181
tRp810
sg89
I1
sg90
Nsbsg137
S'gene'
p811
sg139
(dp812
S'db_xref'
p813
(lp814
S'GeneID:807896'
p815
asS'gene'
p816
(lp817
S'ND4'
p818
assbag1
(g125
g3
NtRp819
(dp820
g128
(lp821
sg130
S''
sg131
g132
sg46
g1
(g79
g3
NtRp822
(dp823
g82
Nsg83
g1
(g84
g85
I11559
tRp824
sg87
g1
(g84
g85
I10181
tRp825
sg89
I1
sg90
Nsbsg137
S'CDS'
p826
sg139
(dp827
S'product'
p828
(lp829
S'NADH dehydrogenase subunit 4'
p830
asS'transl_except'
p831
(lp832
S'(pos:11559,aa:TERM)'
p833
asS'codon_start'
p834
(lp835
S'1'
asS'transl_table'
p836
(lp837
S'2'
asS'note'
p838
(lp839
S"TAA stop codon is completed by the addition of 3' A residues to the mRNA"
p840
asS'db_xref'
p841
(lp842
S'GI:5835161'
p843
aS'GeneID:807896'
p844
asS'translation'
p845
(lp846
S'MLKLIAPTIMLLPLTWLSKKHMIWINTTTHSLIISIIPLLFFNQINNNLFSYSLSFSSDPLTTPLLMLTTWLLPLTIMASQRHLSNEPLSRKKLYLSMLISLQISLIMTFTATELIMFYIFFEATLIPTLVIITRWGNQPERLNAGTYFLFYTLVGSLPLLIALIHTHNTLGSLNILLLTLTAQELPNSWANNLMWLAYTMAFMVKMPLYGLHLWLPKAHVEAPIAGSMMLAAVLLKLGGYGMMRLMLILNPLTKHMAYPFLALSLWGMIMTSSISLRQTDLKSLIAYSSISHMALVVAAILIQTPWSFTGAVVLMIAHGLTSSLLFCLANSNYERTHSRIMILSQGLQTLLPLMALWWLLASLANLALPPTINLLGELSVLVTTFSWSNTTLLLTGSNMLITALYSLYMFTTTQWGPLTHHITNMKPSFTRENILMFMHLSPILLLSLNPDIITGFTS'
p847
asS'gene'
p848
(lp849
S'ND4'
p850
asS'protein_id'
p851
(lp852
S'NP_008221.1'
p853
assbag1
(g125
g3
NtRp854
(dp855
g128
(lp856
sg130
S''
sg131
g132
sg46
g1
(g79
g3
NtRp857
(dp858
g82
Nsg83
g1
(g84
g85
I11628
tRp859
sg87
g1
(g84
g85
I11559
tRp860
sg89
I1
sg90
Nsbsg137
S'tRNA'
p861
sg139
(dp862
S'product'
p863
(lp864
S'tRNA-His'
p865
assbag1
(g125
g3
NtRp866
(dp867
g128
(lp868
sg130
S''
sg131
g132
sg46
g1
(g79
g3
NtRp869
(dp870
g82
Nsg83
g1
(g84
g85
I11687
tRp871
sg87
g1
(g84
g85
I11628
tRp872
sg89
I1
sg90
Nsbsg137
S'tRNA'
p873
sg139
(dp874
S'codon_recognized'
p875
(lp876
S'AGY'
p877
asS'product'
p878
(lp879
S'tRNA-Ser'
p880
assbag1
(g125
g3
NtRp881
(dp882
g128
(lp883
sg130
S''
sg131
g132
sg46
g1
(g79
g3
NtRp884
(dp885
g82
Nsg83
g1
(g84
g85
I11758
tRp886
sg87
g1
(g84
g85
I11687
tRp887
sg89
I1
sg90
Nsbsg137
S'tRNA'
p888
sg139
(dp889
S'codon_recognized'
p890
(lp891
S'CUN'
p892
asS'product'
p893
(lp894
S'tRNA-Leu'
p895
assbag1
(g125
g3
NtRp896
(dp897
g128
(lp898
sg130
S''
sg131
g132
sg46
g1
(g79
g3
NtRp899
(dp900
g82
Nsg83
g1
(g84
g85
I13570
tRp901
sg87
g1
(g84
g85
I11758
tRp902
sg89
I1
sg90
Nsbsg137
S'gene'
p903
sg139
(dp904
S'db_xref'
p905
(lp906
S'GeneID:807891'
p907
asS'gene'
p908
(lp909
S'ND5'
p910
assbag1
(g125
g3
NtRp911
(dp912
g128
(lp913
sg130
S''
sg131
g132
sg46
g1
(g79
g3
NtRp914
(dp915
g82
Nsg83
g1
(g84
g85
I13570
tRp916
sg87
g1
(g84
g85
I11758
tRp917
sg89
I1
sg90
Nsbsg137
S'CDS'
p918
sg139
(dp919
S'product'
p920
(lp921
S'NADH dehydrogenase subunit 5'
p922
asS'codon_start'
p923
(lp924
S'1'
asS'transl_table'
p925
(lp926
S'2'
asS'db_xref'
p927
(lp928
S'GI:5835153'
p929
aS'GeneID:807891'
p930
asS'translation'
p931
(lp932
S'MTMYATMTTLALTSLIPPILTTFINPNKKSSYPHYVKSIVASTFIISLFPTTMFLCLDQEAIISSWHWATTQTIQLSLSFKLDYFSMMFIPVALFVTWSIMEFSLWYMNSDPNINQFFKYLLIFLITMLILVTANNLFQLFIGWEGVGIMSFLLIGWWYARTDANTAAVQAILYNRIGDIGFILALAWFLLHSNSWDPQQMSLLNTNPNLIPLLGFLLAAAGKSAQLGLHPWLPSAMEGPTPVSALLHSSTMVVAGVFLLIRFRHLAENNSLAQTLTLCLGAITTLFAAVCALTQNDIKKIVAFSTSSQLGLMVATIGIGQPHLAFLHICTHAFFKAMLFMCSGSIIHNLNNEQDIRKMGGLLKAMPLTSTSLAIGSLALMGMPFLTGFYSKDLIIETANMSHTNAWALSIILIATSLTSAYSTRMILLTLTGQPRFPTFANINENYSTLLNPIKRLTIGSLFAGFFITNNILPTSVPQMTIPLYLKLTALSITLLGLLTALDLNYLTNKLKMKHPPHTFYFSNMLGFYPNITHRTIPYLGLLMSQNLPLLLLDLIWLEKLLPKTISQHQISASITTSTQKGLIKLYFLSFFFPLLLILLLIT'
p933
asS'gene'
p934
(lp935
S'ND5'
p936
asS'protein_id'
p937
(lp938
S'NP_008222.1'
p939
assbag1
(g125
g3
NtRp940
(dp941
g128
(lp942
sg130
S''
sg131
g132
sg46
g1
(g79
g3
NtRp943
(dp944
g82
Nsg83
g1
(g84
g85
I14095
tRp945
sg87
g1
(g84
g85
I13570
tRp946
sg89
I-1
sg90
Nsbsg137
S'gene'
p947
sg139
(dp948
S'db_xref'
p949
(lp950
S'GeneID:807888'
p951
asS'gene'
p952
(lp953
S'ND6'
p954
assbag1
(g125
g3
NtRp955
(dp956
g128
(lp957
sg130
S''
sg131
g132
sg46
g1
(g79
g3
NtRp958
(dp959
g82
Nsg83
g1
(g84
g85
I14095
tRp960
sg87
g1
(g84
g85
I13570
tRp961
sg89
I-1
sg90
Nsbsg137
S'CDS'
p962
sg139
(dp963
S'product'
p964
(lp965
S'NADH dehydrogenase subunit 6'
p966
asS'codon_start'
p967
(lp968
S'1'
asS'transl_table'
p969
(lp970
S'2'
asS'db_xref'
p971
(lp972
S'GI:5835154'
p973
aS'GeneID:807888'
p974
asS'translation'
p975
(lp976
S'MTYVLFLLSVGLVMGFVGFSSKPSPIYGGLVLIVSGVVGCAIILNCGGGYMGLMVFLIYLGGMMVVFGYTTAMAIGEYPEAWGSGVEVLVSVLVGLAMEVGLVLWVKEYDGVVVVVNFNNVGSWMIYEGEGSGLIREDPIGAGALYDYGRWLVVVTGWTLFVGVYIVIEIARGN'
p977
asS'gene'
p978
(lp979
S'ND6'
p980
asS'protein_id'
p981
(lp982
S'NP_008223.1'
p983
assbag1
(g125
g3
NtRp984
(dp985
g128
(lp986
sg130
S''
sg131
g132
sg46
g1
(g79
g3
NtRp987
(dp988
g82
Nsg83
g1
(g84
g85
I14164
tRp989
sg87
g1
(g84
g85
I14095
tRp990
sg89
I-1
sg90
Nsbsg137
S'tRNA'
p991
sg139
(dp992
S'product'
p993
(lp994
S'tRNA-Glu'
p995
assbag1
(g125
g3
NtRp996
(dp997
g128
(lp998
sg130
S''
sg131
g132
sg46
g1
(g79
g3
NtRp999
(dp1000
g82
Nsg83
g1
(g84
g85
I15309
tRp1001
sg87
g1
(g84
g85
I14168
tRp1002
sg89
I1
sg90
Nsbsg137
S'gene'
p1003
sg139
(dp1004
S'db_xref'
p1005
(lp1006
S'GeneID:807889'
p1007
asS'gene'
p1008
(lp1009
S'CYTB'
p1010
assbag1
(g125
g3
NtRp1011
(dp1012
g128
(lp1013
sg130
S''
sg131
g132
sg46
g1
(g79
g3
NtRp1014
(dp1015
g82
Nsg83
g1
(g84
g85
I15309
tRp1016
sg87
g1
(g84
g85
I14168
tRp1017
sg89
I1
sg90
Nsbsg137
S'CDS'
p1018
sg139
(dp1019
S'product'
p1020
(lp1021
S'cytochrome b'
p1022
asS'transl_except'
p1023
(lp1024
S'(pos:15309,aa:TERM)'
p1025
asS'codon_start'
p1026
(lp1027
S'1'
asS'transl_table'
p1028
(lp1029
S'2'
asS'note'
p1030
(lp1031
S"TAA stop codon is completed by the addition of 3' A residues to the mRNA"
p1032
asS'db_xref'
p1033
(lp1034
S'GI:5835162'
p1035
aS'GeneID:807889'
p1036
asS'translation'
p1037
(lp1038
S'MTPMRKTNPLAKLINHSFIDLPTPSNISTWWNFGSLLGACLILQITTGLFLAMHYSPDASTAFSSIAHITRDVNYGWTIRYLHANGASMFFICLFLHIGRGLYYGSFLHQETWNIGIILLLTTMAAAFMGYVLPWGQMSFWGATVITNLLSAIPYIGTDLVQWVWGGYSVDSPTLTRFFTFHFILPFIITALTTLHLLFLHETGSNNPLGIPSHSDKITFHPYYTIKDILGLFLFLLTLMTLTLFSPDLLGDPDNYTLANPLSTPPHIKPEWYFLFAYAILRSVPNKLGGVLALLLSILILAMIPILHMSKQQSMMFRPLSQLLYWFLIADLFTLTWIGGQPVSYPFITIGQVASVLYFTTILFLMPITSLIENKMLKWT'
p1039
asS'gene'
p1040
(lp1041
S'CYTB'
p1042
asS'protein_id'
p1043
(lp1044
S'NP_008224.1'
p1045
assbag1
(g125
g3
NtRp1046
(dp1047
g128
(lp1048
sg130
S''
sg131
g132
sg46
g1
(g79
g3
NtRp1049
(dp1050
g82
Nsg83
g1
(g84
g85
I15377
tRp1051
sg87
g1
(g84
g85
I15309
tRp1052
sg89
I1
sg90
Nsbsg137
S'tRNA'
p1053
sg139
(dp1054
S'product'
p1055
(lp1056
S'tRNA-Thr'
p1057
assbag1
(g125
g3
NtRp1058
(dp1059
g128
(lp1060
sg130
S''
sg131
g132
sg46
g1
(g79
g3
NtRp1061
(dp1062
g82
Nsg83
g1
(g84
g85
I15446
tRp1063
sg87
g1
(g84
g85
I15378
tRp1064
sg89
I-1
sg90
Nsbsg137
S'tRNA'
p1065
sg139
(dp1066
S'product'
p1067
(lp1068
S'tRNA-Pro'
p1069
assbag1
(g125
g3
NtRp1070
(dp1071
g128
(lp1072
sg130
S''
sg131
g132
sg46
g1
(g79
g3
NtRp1073
(dp1074
g82
Nsg83
g1
(g84
g85
I16364
tRp1075
sg87
g1
(g84
g85
I15446
tRp1076
sg89
I1
sg90
Nsbsg137
S'D-loop'
p1077
sg139
(dp1078
sbasS'_seq'
p1079
g1
(cBio.Seq
Seq
p1080
g3
NtRp1081
(dp1082
S'alphabet'
p1083
g1
(cBio.Alphabet.IUPAC
IUPACAmbiguousDNA
p1084
g3
NtRp1085
sS'_data'
p1086
S'GTTTATGTAGCTTACCTCCCCAAAGCAATACACTGAAAATGTTTCGACGGGCTCACATCACCCCATAAACAAATAGGTTTGGTCCTAGCCTTTCTATTAACTCTTAGTAGGATTACACATGCAAGCATCCCCGCCCCAGTGAATCACCCTCTAAATCACCACGATCAAAAGGAACAAGCATCAAGTACGCAGAAATGCAGCTCAAAACGCTTAGCCTAGCCACACCCCCACGGGGGACAGCAGTGATTAACCTTTAGCAATAAACGAAAGTTTAACTAAGCCATACTAACCCCAGGGTTGGTCAATTTCGTGCCAGCCACCGCGGTCACACGATTAACCCAAGCCAATAGAAATCGGCGTAAAGAGTGTTTTAGATCAATCCCCAATAAAGCTAAAATTCACCTGAGTTGTAAAAAACTCCAGCTGATATAAAATAAACTACGAAAGTGGCTTTAATATATCTGAACACACAATAGCTAGGACCCAAACTGGGATTAGATACCCCACTATGCCTAGCCCTAAACTTCAACAGTTAAATTAACAAGACTGCTCGCCAGAACACTACGAGCCACAGCTTAAAACTCAAAGGACCTGGCGGTGCTTCATATCCCTCTAGAGGAGCCTGTTCTGTAATCGATAAACCCCGATCAACCTCACCACCTCTTGCTCAGCCTATATACCGCCATCTTCAGCAAACCCTGATGAAGGCCACAAAGTAAGCACAAGTACCCACGTAAAGACGTTAGGTCAAGGTGTAGCCCATGAGGTGGCAAGAAATGGGCTACATTTTCTACTTCAGAAAACTACGATAACCCTTATGAAACCTAAGGGTAGAAGGTGGATTTAGCAGTAAACTAAGAGTAGAGTGCTTAGTTGAACAGGGCCCTGAAGCGCGTACACACCGCCCGTCACCCTCCTCAAGTATACTTCAAAGGACATTTAACTAAAACCCCTACGCATCTATATAGAGGAGATAAGTCGTAACATGGTAAGTGTACTGGAAAGTGCACTTGGACGAACCAGAGTGTAGCTTAACACAAAGCACCCAACTTACACTTAGGAGATTTCAACTCAACTTGACCGCTCTGAGCAAAACCTAGCCCCAAACCCACCCCACATTACTACCAAACAACTTTAATCAAACCATTTACCCAAATAAAGTATAGGCGATAGAAATTGTAAATCGGCGCAATAGATATAGTACCGCAAGGGAAAGATGAAAAAATATAACCAAGCACGACACAGCAAGGACTAACCCCTGTACCTTCTGCATAATGAATTAACTAGAAATAACTTTGCAAAGAGAACCGAAGCTAAGACCCCCGAAACCAGACGAGCTACCTAAGAACAGCTAAAAGAGCACACCCGTCTATGTAGCAAAATAGTGGGAAGATTCCTAGGTAGAGGCGACAAACCTACCGAGCCTGGTGATAGCTGGTTGTCCAAGACAGAATCTTAGTTCAACTTTAAATTTACCCACAGAACCCTCCAAATCCTCCCGTAAATTTAACTGTTAGTCCAAAGAGGAACAGCTCTTTGGACACTAGGAAAAAACCTTGTAAAGTGAGTAAAAAATTTAATACCCATAGTAGGCCTAAAAGCAGCCACCAATTAAGAAAGCGTTCAAGCTCAACACTATCACCCAAAATAATCCCAAACACACAACTGAACTCCCTACACCCAATTGGACCAATCTATTACCCTATAGAAGAGCTAATGTTAGTATAAGTAACATGAAACCATTCTCCTCCGCATAAGCCTACATCAGACCAAAATATTAAACTGACAATTAACAACTCAATATCTACAACTAACCAACAAGCTATTATTACCCCCACTGTTAACCCAACACAGGCATGCCCACGAGGAAAGGTTGAAAAAAGTAAAAGGAACTCGGCAAATTTTACCCCGCCTGTTTACCAAAAACATCACCTCTAGCATTACCAGTATTAGAGGCACCGCCTGCCCAGTGACATGCGTTCAACGGCCGCGGTACCCTAACCGTGCAAAGGTAGCATAATCACTTGTTCCTTAAATAGGGACTCGTATGAATGGCTCCACGAGGGTTCAGCTGTCTCTTACTTTTGACCAGTGAAATTGACCTGCCCGTGAAGAGGCGGACATAACATAACAAGACGAGAAGACCCTATGGAGCTTTAATTCATTAATGCAAGCAACACTTAATAAACCCACAGGTCCTAAACTACCAAACCTGCATTAAAAATTTCGGTTGGGGCGACCTCGGAGTATAATCTAACCTCCGAACAACACATGCCAAGACTTCACCAGTCAAAGCGAGCTACCACATTTAATTGATCCAATGACTTGACCAACGGAACAAGTTACCCTAGGGATAACAGCGCAATCCTATTCTAGAGTCCATATCAACAGTAGGGTTTACGACCTCGATGTTGGATCAGGACATCCCGATGGTGCAGCCGCTATCAAAGGTTCGTTTGTTCAACGATTAAAGTCCTACGTGATCTGAGTTCAGACCGGAGTAATCCAGGTCGGTTTCTATCTATTCCGTGTTTCTCCCTGTACGAAAGGACAAGAGAAACGAGGCCTACTTCACAAAGCGCCTCCCCCCGTAAATGATACTATCTCAATTTAATATAGCGCCCACATCTACTCAAGAATAGGGTTTGTTAAGATGGCAGAGCCCGGTAATCGCATAAAACTTAAAACTTTATAGTCAGAGGTTCAATTCCTCTTCTTAACAATATATCCATGGCTAACCTTCTACTCCTCATTGTACCTATCCTAATCGCCATAGCATTCCTAATGCTAACCGAACGAAAAATTTTAGGCTATATACAACTACGTAAAGGCCCCAACGTCGTAGGCCCCTACGGGCTACTACAACCCTTCGCTGACGCCATAAAACTCTTCACCAAAGAGCCCCTAAAACCCTCAACATCAACCATCACCCTCTACATCACCGCCCCAACCTTAGCTCTCACTATTGCCCTACTATTATGAACCCCCCTCCCCATACCCAACCCCCTAGTCAATCTCAATCTAGGCCTCCTATTCATCCTAGCCACCTCTAGCCTAGCCGTTTACTCCATCCTCTGATCAGGGTGGGCATCAAACTCAAACTACGCCTTGATCGGCGCACTACGAGCAGTAGCCCAAACAATCTCATATGAAGTCACCCTGGCCATTATCCTACTATCAACACTACTGATGAATGGTTCCTTTAACCTCTCCACCCTCATCATAACACAAGAACACCTCTGACTGCTCCTACCAACATGACCCTTAGCTATAATATGATTTATCTCCACATTAGCAGAAACCAACCGGACCCCCTTCGACCTCGCTGAAGGAGAATCTGAACTAGTCTCAGGCTTTAATATCGAATATGCCGCAGGCCCCCTCGCCCTATTTTTCATAGCCGAGTACATAAATATTATCATAATAAATACTCTCACCACTATAATTTTCCTAGGAACAACATACAATGCCCACTCCCCTGAACTCTACACAGTATGCTTCATCACCAAAACCCTGCTTCTAACCTCTCTATTCCTATGAATTCGAACTGCATATCCTCGATTTCGCTACGACCAACTCATGCACCTCCTGTGAAAAAACTTCTTGCCACTCACCCTGGCACTACTCATATGATATATTTCCATACCTACCACAATCTCCAGCATTCCCCCTCAAACCTAAGAAATATGTCTGATAAAAGAGTTACTTTGATAGAGTAAATAATAGAGGTTTAAACCCCCTTATTTCTAGGACTATGAGAATTGAACCCATCCCTGAGAATCCAAAATTCTCCGTGCCACCTGTCACACCCCATCCTAAAGTAAGGTCAGCTAAATAAGCTATCGGGCCCATACCCCGAAAATGTTGGTCACATCCTTCCCGTACTAATTAACCCCCTGGCCCAACCCATCATCTACTCTACCATCTTCGCAGGCACTCTTATTACAGCACTAAGCTCCCACTGATTTTTTGCCTGAGTAGGCCTAGAAATAAACATACTAGCTTTTATCCCAGTCCTAACCAAAAAAATAAATCCCCGCTCCACAGAAGCCGCCATCAAATATTTCCTCACACAAGCAACTGCATCCATAATCCTCCTAATAGCCATCCTCTCCAACAACATACTCTCCGGACAATGAACCACAACCAATGCCACTAATCAATACTCATCATTAATGATCGTAGTAGCTATAGCTATAAAACTAGGAATAGCCCCCTTTCACTTCTGAGTGCCAGAAGTCACCCAAGGCACCCCCCTAATGTCTGGCCTACTCCTCCTCACATGACAAAAACTAGCCCCTATGTCAATCATATACCAAATTTCCTCGTCAACAAATGTAAGCCTTCTCCTCACTCTTTCAATCCTATCCATCCTAGCAGGCAGCTGAGGCGGACTAAACCAAACTCAACTACGCAAGATTCTAGCATACTCCTCAATCACCCATGTAGGATGAATAATAGCAGTTCTACCATATAACCCTAATATAACTATTCTTAATCTGACCATTTATATTATCCTCACTACTACCACATTCCTATTACTCAACCTAAGCTCCAGCACCACAACCTTACTACTATCTCGTACTTGAAATAAACTGACATGATTAACACCTCTAATCCCCTCCACCCTCCTCTCCCTAGGAGGTCTACCCCCACTAACCGGCTTCCTACCCAAATGGCTTATTATCGAAGAATTCACAAAAAATAACGACCTCATTACCCCCACCATTATGGCCATCATCACCCTCCTCAACCTCTATTTCTATCTACGCCTAATTTACTCCACCTCTATCACACTACTACCCATATCCAACAACGTAAAGATAAAATGACAGCTCGAATATACTAAACCCACTCCCTTCCTCCCTACACTTATCACACTCACCACCCTACTTCTACCCATCTCCCCCTTCATACTAATAGTTCTATAGAAATTTAGGTTAAACATAGACCAAGAGCCTTCAAAGCCCTTAGTAAGTTACAACACTTAATTTCTGCAACAACTAAGGACTGCAAAACCCTACTCTGCATCAACTGAACGCAAATCAGCCACTTTAATTAAGCTAAGCCCTTACTAGATCAATGGGACTCAAACCCACAAACATTTAGTTAACAGCTAAACACCCTAGTCAACTGGCTTCAATCTACTTCTCCCGCCGCAAGAAAAAAAGGCGGGAGAAGCCCCGGCAGGTTTGAAGCTGCTTCTTCGAATTTGCAATTCAATATGAAATTCACCTCGGAGCTGGTAAAAAGAGGCCCAGCCTCTGTCTTTAGATTTACAGTCCAATGCCTTACTCAGCCATTTTACCTCCTTTTTTCCACTGATGTTCACCGACCGCTGATTATTCTCTACAAACCATAAAGATATTGGAACACTATATCTACTATTCGGCGCATGAGCTGGAGTCCTAGGCACAGCCCTAAGTCTCCTTATTCGAGCAGAACTTGGTCAACCAGGCAACCTTCTAGGTAACGATCACATCTATAATGTTATCGTCACAGCCCATGCGTTCGTAATAATTTTCTTCATAGTAATGCCTATCATAATCGGAGGCTTTGGCAACTGGCTAGTACCCTTAATAATTGGTGCCCCCGACATGGCATTCCCCCGCATAAACAACATAAGCTTCTGACTCCTTCCCCCTTCTTTCCTACTTCTGCTCGCATCCGCTATAGTAGAAGCCGGCGCAGGGACTGGTTGGACAGTCTACCCTCCCTTAGCAGGAAATTATTCCCACCCCGGAGCTTCTGTAGACCTAACCATTTTTTCCCTACACCTAGCAGGCATCTCCTCTATTCTAGGGGCCATCAACTTCATTACAACAATCATCAATATAAAACCCCCCGCCATAACCCAATACCAAACACCCCTTTTCGTCTGATCCGTCCTAATCACAGCAGTCTTACTTCTTCTATCTCTCCCAGTACTAGCTGCTGGAATTACCATATTATTAACAGACCGTAACCTCAACACCACCTTTTTCGACCCAGCCGGAGGAGGAGATCCTATCCTATACCAACACTTATTCTGATTTTTTGGACACCCCGAAGTTTACATTCTAATCCTACCAGGCTTCGGAATAATCTCCCACATTGTAACTTATTACTCCGGAAAAAAAGAACCATTCGGATATATAGGTATAGTCTGAGCTATAATATCAATTGGTTTCCTGGGATTTATTGTGTGAGCCCACCACATATTTACAGTAGGAATAGACGTAGATACACGAGCCTACTTCACCTCCGCTACCATAATCATCGCTATCCCCACCGGCGTCAAAGTATTCAGCTGACTCGCTACACTCCATGGAAGTAATACCAAATGATCTGCCGCAATGCTCTGAGCCCTAGGGTTCATTTTTCTCTTCACTGTAGGCGGCCTAACCGGCATCGTACTAGCAAACTCGTCATTAGATATCGTGCTGCACGACACATATTACGTCGTAGCTCACTTCCACTATGTCCTATCTATAGGAGCTGTGTTCGCCATCATAGGGGGCTTTATTCACTGATTTCCCCTATTCTCAGGCTACACTCTAGATCAAACCTACGCCAAAATCCACTTTGCCATCATATTCATTGGCGTTAATCTAACCTTCTTCCCACAACACTTTCTTGGCCTATCTGGAATACCCCGACATTACTCGGACTACCCCGATGCATATACTACATGAAATATCCTGTCATCCGTGGGCTCATTCATTTCCCTAACAGCAGTAATATTAATAATTTTTATAATCTGAGAAGCCTTCGCCTCAAAACGAAAAGTCCTAATAATCGAAGAACCCTCCACAAATCTGGAGTGACTGTATGGATGCCCTCCACCCTATCATACATTTGAAGAGTCTGTATATATAAAGTCTAAACAAAAAAGGAAGGAATCGAACCCCCCAAAGCTGGTTTCAAGCCAACCCCATGACCTTCATGACTTTTTCAAAAAGATATTAGAAAAACTATTTCATAACTTTGTCAAGGTTAAATTACGGGTTAAACCCCGTATATCTTAATGGCACATGCAGCGCAAGTAGGTCTACAAGACGCTACTTCTCCTATCATAGAAGAACTAATCATCTTTCATGATCATGCCCTCATAATCATTTTTCTCATCTGCTTCTTAGTCCTGTACGCCCTTTTCCTAACACTCACAACAAAGCTAACTAACAACAACATCTCAGACGCCCAAGAAATAGAGACCATCTGAACCATCCTGCCCGCTATTATCTTAGTCCTGATCGCCCTCCCATCTCTACGAATCCTCTATATGACAGATGAAATCAATGACCCCTCCTTCACTATCAAATCAATCGGTCACCAATGATACTGAACCTACGAATACACCGACTATGGTGGATTGATCTTTAACTCCTATATACTCCCCCCATTATTCCTAGAACCAGGTGACCTACGACTCCTTGACGTCGACAACCGAGTAGTCCTTCCAGTTGAAGCCCCCGTCCGTATAATAATTACATCCCAAGATGTCTTACACTCATGAGCTGTTCCCACATTAGGCCTAAAAACAGACGCAATCCCCGGGCGCCTGAACCAAACCACATTCACCGCCACACGACCAGGAGTATACTACGGCCAGTGCTCAGAAATCTGTGGAGCCAACCACAGTTTTATGCCCATTGTTCTAGAGCTAATCCCCCTAAAAATCTTTGAAATAGGACCCGTATTCGCCCTATAATACCCCTCTCATCCCTCTCCAGAGCTCACTGTAAAGCTAACCTAGCGTTAACCTTTTAAGTTAAAGATTAAGAGTATCGGCACCTCTTTGCAGTGAAATGCCCCAGCTAAATACCACCGTATGGCCCACCATAATTGCCCCAATACTCCTCACACTATTTCTCATTACCCAACTAAAAGTTTTAAACACAAATTACCACCTACCCCCCTTACCAAAAACTATAAAAATAAAAAACTTCTGTAAACCCTGAGAACCAAAATGAACGAAAATTTATTCGCTTCATTCATTGCCCCCACAATCCTAGGCTTACCCGCCGCAGTATTAATTATCCTACTTCCCCCTCTACTGATCCCCACCTCCAAATATCTCATCAACAACCGACTGATTGCCACCCAACAGTGACTAATCCAACTAACCTCAAAACAAATAATAACTATACATAACGCCAAGGGACGAACCTGATCCCTTATGTTAATATGATTAATTATTTTTATTGCCACAACCAACCTCCTCGGACTCTTGCCCCACTCATTCACACCAACTACCCAGCTATCTATAAACCTGGCCATAGCCATCCCCCTGTGAGCAGGCGCAGTAACTACAGGCTTTCGCTCCAAGACTAAAAATGCCCTAGCCCACCTACTACCACAAGGCACCCCTACACCCCTTATCCCTATACTAGTCATCATTGAAACCATCAGCCTATTCATCCAACCAATAGCCCTAGCTGTACGCCTAACCGCTAACATCACTGCAGGTCACCTACTTATGCACCTAATCGGAAGCGCCACACTAGCAATATCAACTACCAATCTTCCCTCAACACTCATTATCTTTACAGTCCTAATTTTATTAACTATACTAGAAATCGCTGTCGCCCTCATCCAAGCCTACGTTTTCACACTTTTAGTGAGCCTCTACCTGCACGAGAACACATAATGATCCACCAATCACATGCCTATCACATAGTAAAACCCAGCCCATGACCCCTAACAGGGGCCCTCTCAGCCCTCCTAATAACCTCAGGCTTAGCCATATGATTCCACTTCCACTCTACAACCCTACTCATACTAGGCCTACTAACCAACATACTAACTATATACCAATGATGACGTGATGTAATGCGAGAAAGCACGTACCAAGGCCACCATACACTACCCGTCCAAAAAGGCTTACGATATGGAATGATCCTATTTATTACCTCAGAAGTCTTTTTCTTCGCAGGATTCTTCTGAGCTTTCTACCACTCCAGCCTAGCCCCTACCCCTCAACTAGGAGCACACTGACCCCCAACAGGCATCACCCCACTAAACCCCCTAGAAGTTCCACTTTTAAATACATCTGTACTGCTCGCATCAGGTGTCTCAATTACCTGAGCCCACCATAGCCTAATAGAAAATAACCGTAACCAAATAATTCAAGCACTACTTATCACAATTTTACTGGGCCTCTACTTCACCCTCCTACAAGCCTCAGAGTACTTTGAAGCCCCCTTTACCATTTCCGATGGTATCTATGGCTCAACATTTTTTGTAGCCACAGGCTTTCACGGGCTCCACGTCATCATTGGGTCAACTTTCCTCACTATCTGTCTTATTCGCCAACTAATATTTCACTTTACATCCAAACACCACTTCGGCTTCGAAGCCGCCGCTTGGTATTGGCACTTCGTAGATGTAGTCTGACTATTCCTATACGTCTCCATCTACTGATGAGGGTCCTACTCTTTTAGTATAATTAGTACCGTTAACTTCCAATTAACCAGTTTTGGTAGTACCCAAAAAAGAGTAATAAACTTCGCCCTGATCTTAATAACCAACACCCTTCTAGCCCTACTACTAATAATTATTACATTTTGACTACCGCAACTTAACAGCTACATAGAAAAAACTAACCCCTACGAATGTGGTTTCGACCCCGTATCCCCCGCCCGCATTCCTTTCTCCATAAAATTTTTCCTAGTAGCCATCACTTTCTTACTATTTGACCTAGAAATTGCCCTCCTATTGCCCCTGCCATGAGCCCTACAAACAACCAACTTACCACTAATAGTCATGTCATCCCTCTTATTAATCATTATCCTAACCCTAAGTCTAGCCTACGAATGACTGCAAAAAGGACTAGACTGGACCGAATTGGTACATAGTTTAAACAAAACGAATGATTTCGACTCATTAAATTATGATAATCATATTTACCAAATGCCCCTTATTTACATAAACATTATACTAGCATTTACCATCTCACTTCTAGGAATACTAGTGTACCGTTCACACCTAATATCCTCCCTACTATGCCTAGAAGGAATAATATTATCACTATTCATTATAGCTACTCTCATAACCCTCAATACCCACTTCCTCTTAGCTAACATTGTACCCATCACCATACTAGTCTTTGCTGCCTGTGAAGCAGCAGTAGGCCTAGCCCTACTAGTCTCAATCTCTAACACATATGGTCTTGACTATGTACAAAACCTAAACCTGCTCCAATGCTAAAACTAATCGCCCCAACAATTATACTACTACCGCTAACATGACTCTCCAAAAAACATATAATTTGAATCAACACAACCACCCACAGCCTAATCATCAGCATCATTCCCCTACTATTTTTTAACCAAATTAATAACAATCTATTTAGTTACTCCCTATCTTTTTCCTCCGACCCCCTAACGACCCCCCTCCTAATATTAACTACCTGACTCCTACCCCTTACAATTATAGCAAGCCAGCGCCACCTATCCAACGAACCACTATCACGAAAAAAACTCTATCTCTCCATATTAATCTCCCTCCAAATCTCCTTAATCATAACATTCACAGCCACAGAACTAATCATATTCTATATCTTCTTCGAAGCCACACTTATCCCTACCCTAGTTATCATCACCCGATGAGGCAACCAACCCGAACGTCTAAACGCGGGTACATACTTCCTATTCTACACCCTAGTAGGATCCCTCCCCCTACTTATCGCATTAATCCACACTCACAACACCTTAGGCTCACTAAATATTCTATTACTCACCCTTACTGCCCAAGAACTACCTAACTCCTGAGCCAACAACTTAATATGACTGGCATACACAATAGCCTTTATAGTGAAAATACCACTTTACGGGCTCCACCTATGACTCCCTAAGGCCCATGTTGAGGCCCCCATTGCTGGCTCAATGATGCTCGCTGCAGTACTCTTAAAATTAGGTGGCTATGGCATAATACGCCTCATACTCATTCTTAACCCCCTAACAAAACACATAGCTTATCCTTTCCTCGCCCTATCTTTATGGGGTATAATCATAACAAGCTCCATCTCGCTACGGCAAACAGATTTAAAATCGCTCATTGCATACTCCTCAATTAGCCACATAGCCCTTGTAGTAGCAGCTATCCTTATCCAAACCCCCTGAAGCTTCACCGGCGCAGTTGTTCTTATAATTGCCCACGGACTTACATCATCATTATTATTCTGCCTAGCAAACTCAAACTACGAACGAACCCACAGCCGCATCATAATTCTCTCTCAAGGACTCCAAACCCTACTCCCACTAATAGCCCTTTGATGACTTCTGGCAAGCCTCGCCAACCTCGCCTTACCCCCCACCATTAACCTACTAGGAGAGCTCTCCGTACTAGTAACCACATTCTCCTGATCAAACACCACCCTTTTACTTACAGGATCTAACATACTAATTACAGCCCTGTACTCCCTTTATATATTTACCACAACACAATGAGGCCCACTCACACACCACATCACCAACATAAAACCCTCATTTACACGAGAAAACATCCTCATATTCATGCACCTATCCCCCATCCTCCTCCTATCCCTCAACCCCGATATTATCACCGGGTTTACCTCCTGTAAATATAGTTTAACCAAAACATCAGATTGTGAATCTGATAACAGAGGCTCACAACCCCTTATTTACCGAGAAAGCTCGTAAGAGCTGCTAACTCATACCCCCGTGCTTAACAACATGGCTTTCTCAACTTTTAAAGGATAACAGCTATCCATTGGTCTTAGGACCCAAAAATTTTGGTGCAACTCCAAATAAAAGTAATAACTATGTACGCTACCATAACCACCTTAGCCCTAACTTCCTTAATTCCCCCTATCCTTACCACCTTCATCAATCCTAACAAAAAAAGCTCATACCCCCATTACGTAAAATCTATCGTCGCATCCACCTTTATCATCAGCCTCTTCCCCACAACAATATTTCTATGCCTAGACCAAGAAGCTATTATCTCAAGCTGACACTGAGCAACAACCCAAACAATTCAACTCTCCCTAAGCTTTAAACTAGATTATTTCTCCATAATATTTATCCCTGTAGCACTGTTCGTCACATGATCCATCATAGAATTCTCACTATGATATATAAACTCAGACCCCAACATCAACCAATTCTTCAAATACCTGCTCATCTTTCTAATCACCATACTAATCCTAGTCACCGCTAATAACCTGTTTCAACTCTTTATCGGCTGAGAAGGTGTGGGAATTATATCTTTTCTACTCATTGGCTGATGATACGCTCGAACAGACGCCAACACAGCAGCCGTCCAAGCAATTCTATACAACCGTATTGGTGACATTGGTTTTATCCTAGCCCTAGCATGATTTCTCCTACACTCCAACTCATGAGACCCACAACAAATATCTCTCTTAAACACCAACCCTAACCTTATCCCACTTCTAGGTTTCCTCCTAGCAGCAGCAGGCAAATCAGCTCAACTAGGCCTCCACCCCTGACTCCCCTCGGCCATAGAAGGCCCCACCCCCGTCTCAGCCCTACTCCACTCAAGCACTATAGTCGTGGCAGGGGTCTTCCTACTCATCCGCTTCCGCCATTTAGCAGAAAACAACTCACTAGCTCAAACTCTTACACTATGCCTAGGCGCTATTACTACTCTATTCGCGGCAGTCTGCGCTCTCACACAAAATGATATCAAAAAAATCGTAGCCTTCTCCACTTCAAGCCAATTAGGGCTCATAGTAGCCACAATTGGCATCGGCCAGCCACACCTAGCATTTCTACACATCTGCACCCACGCTTTCTTTAAAGCCATATTATTTATATGCTCCGGATCCATTATCCATAACCTCAATAATGAGCAAGACATCCGAAAAATAGGAGGTCTGCTCAAAGCCATACCCCTTACTTCAACCTCCCTAGCCATTGGCAGCCTAGCACTAATAGGAATACCTTTTCTCACAGGCTTCTACTCCAAAGACCTCATCATCGAAACCGCAAACATATCACACACAAACGCCTGGGCCCTATCAATCATTCTCATCGCCACCTCTCTTACGAGTGCCTACAGCACTCGAATAATCCTTCTCACCCTGACAGGTCAACCTCGCTTCCCAACCTTTGCCAACATCAACGAAAACTACTCCACCCTATTAAATCCTATTAAACGCCTAACAATTGGAAGCCTGTTTGCAGGATTCTTCATCACCAACAACATCCTCCCTACATCCGTACCCCAAATGACAATCCCACTTTACTTAAAACTTACAGCTCTAAGCATCACTCTCCTAGGACTCCTGACAGCCCTAGACCTCAACTACCTCACCAACAAACTCAAAATAAAACACCCACCACACACATTTTACTTCTCCAACATACTCGGATTTTACCCCAACATCACACACCGCACAATTCCCTATCTAGGCCTTCTCATAAGTCAAAATCTACCCCTACTCCTCCTAGACCTAATTTGACTAGAAAAACTACTACCCAAAACAATCTCACAGCATCAAATCTCAGCCTCCATCACTACCTCTACCCAAAAAGGTTTGATCAAACTGTACTTCCTCTCTTTCTTCTTCCCTCTTCTTTTAATCCTTCTTCTAATCACATAACCTATTACCCCGAGCAATCTCAATCACAATATATACACCAACAAATAACGTCCAACCAGTAACCACTACCAATCAACGCCCATAATCATACAAAGCCCCCGCACCAATAGGATCTTCCCGAATTAACCCTGAACCTTCCCCCTCATAAATCATTCAACTCCCCACATTATTAAAATTCACCACAACCACCACCCCATCATACTCTTTCACCCACAACACCAGCCCCACCTCCATTGCTAACCCCACTAAGACACTCACCAAGACCTCAACCCCAGACCCCCACGCCTCAGGATACTCCCCAATGGCCATCGCTGTAGTATACCCAAAAACAACCATCATCCCCCCTAAATAAATTAAAAAAACCATTAAACCCATATAACCTCCCCCACAGTTTAAAATAATAGCACACCCAACCACACCACTAACAATCAACACTAAACCCCCATAAATAGGAGAAGGCTTAGAGGAAAACCCCACAAACCCCATTACTAAACCCACACTCAATAAAAATAAAACATATGTCATCATTCTCGCACGGACCACGACCGCGACTAATGATATGAAAAACCATCGTTGTACTTCAACTACAAGAACATCAATGACCCCTATACGCAAAACTAACCCACTAGCAAAACTAATTAACCACTCATTCATTGACCTCCCTACCCCGTCCAACATCTCCACATGATGAAACTTCGGCTCACTCCTTGGTGCCTGCTTAATCCTTCAAATCACCACAGGGCTATTCCTAGCCATACACTACTCACCTGATGCCTCAACCGCCTTCTCATCAATTGCCCACATCACCCGAGATGTAAACTATGGCTGAACCATCCGCTACCTCCACGCTAACGGCGCCTCAATATTCTTCATTTGCCTCTTTCTACACATCGGACGGGGCCTATACTACGGCTCATTTCTCCACCAAGAAACCTGAAACATCGGCATCATCCTCCTACTCACAACCATAGCAGCAGCCTTCATAGGCTATGTCCTCCCATGAGGCCAAATATCCTTCTGAGGAGCCACAGTAATCACAAACTTGCTATCCGCCATCCCGTACATCGGAACAGACCTAGTCCAATGAGTTTGAGGTGGTTACTCAGTAGATAGCCCTACCCTTACACGATTCTTTACCTTCCACTTTATCCTACCCTTCATCATCACAGCCCTAACAACCCTCCATCTCCTATTTCTACACGAAACAGGATCAAACAACCCTCTAGGCATCCCCTCCCACTCTGACAAAATCACCTTCCACCCCTACTACACAATCAAAGACATCCTAGGCCTATTCCTCTTTCTCCTGACCTTGATAACATTAACACTATTCTCACCAGACCTCCTAGGAGACCCAGACAACTACACCTTAGCCAACCCCCTAAGCACCCCACCCCACATCAAACCCGAATGATATTTCCTATTTGCCTACGCAATTCTCCGATCTGTCCCCAATAAACTAGGAGGCGTCTTAGCTCTATTACTATCTATTCTCATCCTAGCAATAATTCCTATTCTCCACATATCCAAACAACAAAGCATAATATTCCGCCCATTAAGCCAACTACTCTACTGATTCCTAATCGCAGACCTCTTCACCCTAACCTGAATCGGAGGACAACCAGTAAGCTACCCCTTCATCACCATTGGGCAAGTAGCATCCGTACTATACTTCACGACAATCCTATTCCTGATACCAATCACATCCCTGATCGAAAACAAAATACTCAAATGAACCTGCCCTTGTAGTACAGACCAATACACCAGTCTTGTAAACCGGAAACGAAGACCTCCTTCCAAGGGCATATTCAGAGAAAAAGTCCTCGACTCCACCATCAGCACCCAAAGCTAATATTCTAATTTAAACTATTCTCTGTTCTTTCATGGGGAGACAAATTTGGGTACTACCAGTATTAGCTAACCCATCATAATTATCATGTATGTCGTGCATTACTGCCAGACACCATGAATAATGTACAGTACCATAAAACGCCCAATCACCTGTAGCACATCCCAACGGAATACCAACTAACCCATCCCTCACAAAAAGTACATAACACATAAGATCATTTATCGCACATAGCACATCCCAGTTAAATCACCCTCGTCCCCACGGATGCCCCCCCTCAGATGGGAATCCCTTGAACACCATCCTCCGTGAAATCAATATCCCGCACAAGAGTGCACTCTCCTCGCTCCGGGCCCATAACACTTGGGGGTAGCTAAAGTGAACTGTATCCGGCATCTGGTTCCTACTTCAGGGTCATAACACCTAAAGCGCTTCACACGTTCCCCTTAAATAAGACATCACGATGGATCACAGGTCTATCACCCTATTAACCACTCACGGGAGCTCTCCATGCATTTGGTATTTTTCGTCGGGGGGTGTGCACGCGATAGTGAGACGCTGGAACCGGAGCACCACATGTCGCAGTATCTGTCTTTGATTCCTGCCCCATGCTACCATTTATCGCACCTACGTTCAATATTACAGCCGAGCGCACAGTGTTCATGGTGTTAATTAATTCATGCTTGTTGGACATAAAACAACCAGGTGGACGTGAACACAACCACCCTTCACACCAAAAACACAACAAAAATCCAACCCCCCCCCCCGCACTAGAAAACAGCCCCACCAAACTCCAAATTTCATCTTTTGGCGGTATGCACTTTTAACAGTCACCCCTCAACTAACATAGTCAGCCCACCAGTACAACCCCCGCCCGCCCTAGCAACACACACTGCTGCTGATCCTATACCCCGAATTAACCAAACCCCAAAGACACCCCACACA'
p1087
sbsS'_per_letter_annotations'
p1088
g1
(cBio.SeqRecord
_RestrictedDict
p1089
c__builtin__
dict
p1090
(dtRp1091
(dp1092
S'_length'
p1093
I16364
sbsg131
S'NC_001645.1'
p1094
sS'name'
p1095
S'NC_001645'
p1096
sb.