ccopy_reg
_reconstructor
p1
(cBio.SeqRecord
SeqRecord
p2
c__builtin__
object
p3
NtRp4
(dp5
S'dbxrefs'
p6
(lp7
S'Project:12455 BioProject:PRJNA12455'
p8
asS'description'
p9
S'Rattus norvegicus strain BN/SsNHsdMCW mitochondrion, complete genome.'
p10
sS'annotations'
p11
(dp12
S'comment'
p13
S'PROVISIONAL REFSEQ: This record has not yet been subject to final\nNCBI review. The reference sequence was derived from AY172581.\nOn Jul 6, 2006 this sequence version replaced gi:5835177.\nSequence Note:  NC_001665.2 represents the reference sequence for\nthe rat mitochondrial genome. In July 2006 the underlying sequence\nwas updated to represent the Brown Norway strain based on the\nrecommendation of the Rat Genome Sequencing Consortium that\nBN/SsNHsdMCW should be the reference sequence.  In conjunction with\nthis update, an alternate accession AC_000022.2 was updated to\ncontinue to represent the the Wistar strain sequence that was\npreviously considered to be the reference standard.\nCOMPLETENESS: full length.'
p14
sS'sequence_version'
p15
I2
sS'source'
p16
S'mitochondrion Rattus norvegicus (Norway rat)'
p17
sS'taxonomy'
p18
(lp19
S'Eukaryota'
p20
aS'Metazoa'
p21
aS'Chordata'
p22
aS'Craniata'
p23
aS'Vertebrata'
p24
aS'Euteleostomi'
p25
aS'Mammalia'
p26
aS'Eutheria'
p27
aS'Euarchontoglires'
p28
aS'Glires'
p29
aS'Rodentia'
p30
aS'Sciurognathi'
p31
aS'Muroidea'
p32
aS'Muridae'
p33
aS'Murinae'
p34
aS'Rattus'
p35
asS'keywords'
p36
(lp37
S''
asS'references'
p38
(lp39
g1
(cBio.SeqFeature
Reference
p40
g3
NtRp41
(dp42
g13
S''
sS'title'
p43
S'The Mitochondrial Genome of Rattus norvegicus strain Brown Norway'
p44
sS'consrtm'
p45
S''
sS'journal'
p46
S'Unpublished'
p47
sS'location'
p48
(lp49
g1
(cBio.SeqFeature
FeatureLocation
p50
g3
NtRp51
(dp52
S'ref'
p53
NsS'_end'
p54
g1
(cBio.SeqFeature
ExactPosition
p55
c__builtin__
int
p56
I16313
tRp57
sS'_start'
p58
g1
(g55
g56
I0
tRp59
sS'_strand'
p60
NsS'ref_db'
p61
NsbasS'pubmed_id'
p62
S''
sS'authors'
p63
S"McLeod,M.P., Muzny,D.M., Metzker,M.L., Abramzon,S., Adams,C., Alder,J., Allen,C., Allen,H., Alsbrooks,S., Amin,A., Anguiano,D., Anyalebechi,V., Aoyagi,A., Ayodeji,M., Baca,E., Baden,H., Baldwin,D., Bandaranaike,D., Barber,M., Barnstead,M., Benahmed,F., Biswalo,K., Blair,J., Blankenburg,K., Blyth,P., Brown,M., Bryant,N., Buhay,C., Burch,P., Burrell,K., Calderon,E., Cardenas,V., Carter,K., Cavazos,I., Ceasar,H., Center,A., Chacko,J., Chavez,D., Chen,G., Chen,R., Chen,Y., Chen,Z., Chu,J., Cleveland,C., Cockrell,R., Cox,C., Coyle,M., Cree,A., D'Souza,L., Davila,M.L., Davis,C., Davy-Carroll,L., De Anda,C., Dederich,D., Delgado,O., Denson,S., Deramo,C., Ding,Y., Dinh,H., Divya,K., Draper,H., Dugan-Rocha,S., Dunn,A., Durbin,K., Duval,B., Eaves,K., Egan,A., Escotto,M., Eugene,C., Evans,C.A., Falls,T., Fan,G., Fernandez,S., Finley,M., Flagg,N., Forbes,L., Foster,M., Foster,P., Fraser,C.M., Gabisi,A., Ganta,R., Garcia,A., Garner,T., Garza,M., Gebregeorgis,E., Geer,K., Gill,R., Grady,M., Guerra,W., Guevara,W., Gunaratne,P., Haaland,W., Hamil,C., Hamilton,C., Hamilton,K., Harvey,Y., Havlak,P., Hawes,A., Henderson,N., Hernandez,J., Hernandez,R., Hines,S., Hladun,S.L., Hodgson,A., Hogues,M., Hollins,B., Howells,S., Hulyk,S., Hume,J., Idlebird,D., Jackson,A., Jackson,L., Jacob,L., Jiang,H., Johnson,B., Johnson,R., Jolivet,A., Karpathy,S., Kelly,S., Kelly,S., Khan,Z., King,L., Kovar,C., Kowis,C., Kraft,C.L., Lebow,H., Levan,J., Lewis,L., Li,Z., Liu,J., Liu,J., Liu,W., Liu,Y., London,P., Longacre,S., Lopez,J., Lorensuhewa,L., Loulseged,H., Lozado,R.J., Lu,X., Ma,J., Maheshwari,M., Mahindartne,M., Mahmoud,M., Malloy,K., Mangum,A., Mangum,B., Mapua,P., Martin,K., Martin,R., Martinez,E., Mawhiney,S., McNeill,T.Z., Meenen,E., Milosavljevic,A., Miner,G., Minja,E., Montemayor,J., Moore,S., Morgan,M., Morris,K., Morris,S., Munidasa,M., Murphy,M., Nair,L., Nankervis,C., Neal,D., Newton,N., Nguyen,N., Norris,S., Nwaokelemeh,O., Okwuonu,G., Olarnpunsagoon,A., Pal,S., Parks,K., Pasternak,S., Paul,H., Perez,A., Perez,L., Pfannkoch,C., Plopper,F., Poindexter,A., Popovic,D., Primus,E., Pu,L.-L., Puazo,M., Quiroz,J., Rachlin,E., Reeves,K., Regier,M.A., Reigh,R., Reilly,B., Reilly,M., Ren,Y., Reuter,M., Richards,S., Riggs,F., Rives,C., Rodkey,T., Rojas,A., Rose,M., Rose,R., Ruiz,S.J., Sanders,W., Savery,G., Scherer,S., Scott,G., Shatsman,S., Shen,H., Shetty,J., Shvartsbeyn,A., Sisson,I., Sitter,C.D., Smajs,D., Sneed,A., Sodergren,E., Song,X.-Z., Sorelle,R., Sosa,J., Steimle,M., Strong,R., Sutton,A., Svatek,A., Tabor,P., Taylor,C., Taylor,T., Thomas,N., Thomas,S., Tingey,A., Trejos,Z., Usmani,K., Valas,R., Vera,V., Villasana,D., Waldron,L., Walker,B., Wang,J., Wang,Q., Wang,S., Warren,J., Warren,R., Wei,X., White,F., Williams,G., Willson,R., Wleczyk,R., Wooden,H., Worley,K., Wright,D., Wright,R., Wu,J., Yakub,S., Yen,J., Yoon,L., Yoon,V., Yu,F., Zhang,J., Zhou,J., Zhou,X., Zhao,S., Dunn,D., von Niederhausern,A., Weiss,R., Smith,D.R., Holt,R.A., Smith,H.O., Weinstock,G. and Gibbs,R.A."
p64
sS'medline_id'
p65
S''
sbag1
(g40
g3
NtRp66
(dp67
g13
S''
sg43
S'Direct Submission'
p68
sg45
S'NCBI Genome Project'
p69
sg46
S'Submitted (06-JUL-2006) National Center for Biotechnology Information, NIH, Bethesda, MD 20894, USA'
p70
sg48
(lp71
g1
(g50
g3
NtRp72
(dp73
g53
Nsg54
g1
(g55
g56
I16313
tRp74
sg58
g1
(g55
g56
I0
tRp75
sg60
Nsg61
Nsbasg62
S''
sg63
S''
sg65
S''
sbag1
(g40
g3
NtRp76
(dp77
g13
S''
sg43
S'Direct Submission'
p78
sg45
S'Rat Genome Sequencing Consortium'
p79
sg46
S'Submitted (04-NOV-2002) Human Genome Sequencing Center, Department of Molecular and Human Genetics, Baylor College of Medicine, 1 Baylor Plaza, Houston, TX 77030, USA'
p80
sg48
(lp81
g1
(g50
g3
NtRp82
(dp83
g53
Nsg54
g1
(g55
g56
I16313
tRp84
sg58
g1
(g55
g56
I0
tRp85
sg60
Nsg61
Nsbasg62
S''
sg63
S''
sg65
S''
sbasS'accessions'
p86
(lp87
S'NC_001665'
p88
asS'data_file_division'
p89
S'ROD'
p90
sS'date'
p91
S'11-MAR-2010'
p92
sS'organism'
p93
S'Rattus norvegicus'
p94
sS'gi'
p95
S'110189714'
p96
ssS'features'
p97
(lp98
g1
(cBio.SeqFeature
SeqFeature
p99
g3
NtRp100
(dp101
S'sub_features'
p102
(lp103
sS'location_operator'
p104
S''
sS'id'
p105
S'<unknown id>'
p106
sg48
g1
(g50
g3
NtRp107
(dp108
g53
Nsg54
g1
(g55
g56
I16313
tRp109
sg58
g1
(g55
g56
I0
tRp110
sg60
I1
sg61
NsbsS'type'
p111
S'source'
p112
sS'qualifiers'
p113
(dp114
S'organelle'
p115
(lp116
S'mitochondrion'
p117
asS'strain'
p118
(lp119
S'BN/SsNHsdMCW'
p120
asS'mol_type'
p121
(lp122
S'genomic DNA'
p123
asS'organism'
p124
(lp125
S'Rattus norvegicus'
p126
asS'db_xref'
p127
(lp128
S'taxon:10116'
p129
assbag1
(g99
g3
NtRp130
(dp131
g102
(lp132
sg104
S''
sg105
g106
sg48
g1
(g50
g3
NtRp133
(dp134
g53
Nsg54
g1
(g55
g56
I67
tRp135
sg58
g1
(g55
g56
I0
tRp136
sg60
I1
sg61
Nsbsg111
S'gene'
p137
sg113
(dp138
S'db_xref'
p139
(lp140
S'GeneID:170599'
p141
asS'gene'
p142
(lp143
S'Trnf'
p144
asS'gene_synonym'
p145
(lp146
S'mt-Tf'
p147
assbag1
(g99
g3
NtRp148
(dp149
g102
(lp150
sg104
S''
sg105
g106
sg48
g1
(g50
g3
NtRp151
(dp152
g53
Nsg54
g1
(g55
g56
I67
tRp153
sg58
g1
(g55
g56
I0
tRp154
sg60
I1
sg61
Nsbsg111
S'tRNA'
p155
sg113
(dp156
S'db_xref'
p157
(lp158
S'GeneID:170599'
p159
asS'product'
p160
(lp161
S'tRNA-Phe'
p162
asS'gene'
p163
(lp164
S'Trnf'
p165
asS'gene_synonym'
p166
(lp167
S'mt-Tf'
p168
assbag1
(g99
g3
NtRp169
(dp170
g102
(lp171
sg104
S''
sg105
g106
sg48
g1
(g50
g3
NtRp172
(dp173
g53
Nsg54
g1
(g55
g56
I1025
tRp174
sg58
g1
(g55
g56
I67
tRp175
sg60
I1
sg61
Nsbsg111
S'gene'
p176
sg113
(dp177
S'db_xref'
p178
(lp179
S'GeneID:170602'
p180
asS'gene'
p181
(lp182
S'Rnr1'
p183
asS'gene_synonym'
p184
(lp185
S'mt-Rnr1'
p186
assbag1
(g99
g3
NtRp187
(dp188
g102
(lp189
sg104
S''
sg105
g106
sg48
g1
(g50
g3
NtRp190
(dp191
g53
Nsg54
g1
(g55
g56
I1025
tRp192
sg58
g1
(g55
g56
I67
tRp193
sg60
I1
sg61
Nsbsg111
S'rRNA'
p194
sg113
(dp195
S'note'
p196
(lp197
S'12S ribosomal RNA'
p198
asS'db_xref'
p199
(lp200
S'GeneID:170602'
p201
asS'product'
p202
(lp203
S's-rRNA'
p204
asS'gene'
p205
(lp206
S'Rnr1'
p207
asS'gene_synonym'
p208
(lp209
S'mt-Rnr1'
p210
assbag1
(g99
g3
NtRp211
(dp212
g102
(lp213
sg104
S''
sg105
g106
sg48
g1
(g50
g3
NtRp214
(dp215
g53
Nsg54
g1
(g55
g56
I1615
tRp216
sg58
g1
(g55
g56
I900
tRp217
sg60
I1
sg61
Nsbsg111
S'STS'
p218
sg113
(dp219
S'db_xref'
p220
(lp221
S'UniSTS:272966'
p222
asS'standard_name'
p223
(lp224
S'PMC316374P5'
p225
assbag1
(g99
g3
NtRp226
(dp227
g102
(lp228
sg104
S''
sg105
g106
sg48
g1
(g50
g3
NtRp229
(dp230
g53
Nsg54
g1
(g55
g56
I1093
tRp231
sg58
g1
(g55
g56
I1025
tRp232
sg60
I1
sg61
Nsbsg111
S'gene'
p233
sg113
(dp234
S'db_xref'
p235
(lp236
S'GeneID:170601'
p237
asS'gene'
p238
(lp239
S'Trnv'
p240
asS'gene_synonym'
p241
(lp242
S'mt-Tv'
p243
assbag1
(g99
g3
NtRp244
(dp245
g102
(lp246
sg104
S''
sg105
g106
sg48
g1
(g50
g3
NtRp247
(dp248
g53
Nsg54
g1
(g55
g56
I1093
tRp249
sg58
g1
(g55
g56
I1025
tRp250
sg60
I1
sg61
Nsbsg111
S'tRNA'
p251
sg113
(dp252
S'db_xref'
p253
(lp254
S'GeneID:170601'
p255
asS'product'
p256
(lp257
S'tRNA-Val'
p258
asS'gene'
p259
(lp260
S'Trnv'
p261
asS'gene_synonym'
p262
(lp263
S'mt-Tv'
p264
assbag1
(g99
g3
NtRp265
(dp266
g102
(lp267
sg104
S''
sg105
g106
sg48
g1
(g50
g3
NtRp268
(dp269
g53
Nsg54
g1
(g55
g56
I2664
tRp270
sg58
g1
(g55
g56
I1093
tRp271
sg60
I1
sg61
Nsbsg111
S'gene'
p272
sg113
(dp273
S'db_xref'
p274
(lp275
S'GeneID:170603'
p276
asS'gene'
p277
(lp278
S'Rnr2'
p279
asS'gene_synonym'
p280
(lp281
S'mt-Rnr2'
p282
assbag1
(g99
g3
NtRp283
(dp284
g102
(lp285
sg104
S''
sg105
g106
sg48
g1
(g50
g3
NtRp286
(dp287
g53
Nsg54
g1
(g55
g56
I2664
tRp288
sg58
g1
(g55
g56
I1093
tRp289
sg60
I1
sg61
Nsbsg111
S'rRNA'
p290
sg113
(dp291
S'note'
p292
(lp293
S'16S ribosomal RNA'
p294
asS'db_xref'
p295
(lp296
S'GeneID:170603'
p297
asS'product'
p298
(lp299
S'l-rRNA'
p300
asS'gene'
p301
(lp302
S'Rnr2'
p303
asS'gene_synonym'
p304
(lp305
S'mt-Rnr2'
p306
assbag1
(g99
g3
NtRp307
(dp308
g102
(lp309
sg104
S''
sg105
g106
sg48
g1
(g50
g3
NtRp310
(dp311
g53
Nsg54
g1
(g55
g56
I2376
tRp312
sg58
g1
(g55
g56
I2238
tRp313
sg60
I1
sg61
Nsbsg111
S'STS'
p314
sg113
(dp315
S'db_xref'
p316
(lp317
S'UniSTS:273091'
p318
asS'standard_name'
p319
(lp320
S'PMC31832P1'
p321
asS'gene'
p322
(lp323
S'Rnr2'
p324
asS'gene_synonym'
p325
(lp326
S'mt-Rnr2'
p327
assbag1
(g99
g3
NtRp328
(dp329
g102
(lp330
sg104
S''
sg105
g106
sg48
g1
(g50
g3
NtRp331
(dp332
g53
Nsg54
g1
(g55
g56
I2749
tRp333
sg58
g1
(g55
g56
I2275
tRp334
sg60
I1
sg61
Nsbsg111
S'STS'
p335
sg113
(dp336
S'db_xref'
p337
(lp338
S'UniSTS:272907'
p339
asS'standard_name'
p340
(lp341
S'PMC312657P1'
p342
assbag1
(g99
g3
NtRp343
(dp344
g102
(lp345
sg104
S''
sg105
g106
sg48
g1
(g50
g3
NtRp346
(dp347
g53
Nsg54
g1
(g55
g56
I2532
tRp348
sg58
g1
(g55
g56
I2337
tRp349
sg60
I1
sg61
Nsbsg111
S'STS'
p350
sg113
(dp351
S'db_xref'
p352
(lp353
S'UniSTS:210357'
p354
asS'standard_name'
p355
(lp356
S'RH136367'
p357
asS'gene'
p358
(lp359
S'Rnr2'
p360
asS'gene_synonym'
p361
(lp362
S'mt-Rnr2'
p363
assbag1
(g99
g3
NtRp364
(dp365
g102
(lp366
sg104
S''
sg105
g106
sg48
g1
(g50
g3
NtRp367
(dp368
g53
Nsg54
g1
(g55
g56
I2739
tRp369
sg58
g1
(g55
g56
I2664
tRp370
sg60
I1
sg61
Nsbsg111
S'gene'
p371
sg113
(dp372
S'db_xref'
p373
(lp374
S'GeneID:170604'
p375
asS'gene'
p376
(lp377
S'Trnl1'
p378
asS'gene_synonym'
p379
(lp380
S'mt-Tl1'
p381
assbag1
(g99
g3
NtRp382
(dp383
g102
(lp384
sg104
S''
sg105
g106
sg48
g1
(g50
g3
NtRp385
(dp386
g53
Nsg54
g1
(g55
g56
I2739
tRp387
sg58
g1
(g55
g56
I2664
tRp388
sg60
I1
sg61
Nsbsg111
S'tRNA'
p389
sg113
(dp390
S'codon_recognized'
p391
(lp392
S'UUR'
p393
asS'db_xref'
p394
(lp395
S'GeneID:170604'
p396
asS'product'
p397
(lp398
S'tRNA-Leu'
p399
asS'gene'
p400
(lp401
S'Trnl1'
p402
asS'gene_synonym'
p403
(lp404
S'mt-Tl1'
p405
assbag1
(g99
g3
NtRp406
(dp407
g102
(lp408
sg104
S''
sg105
g106
sg48
g1
(g50
g3
NtRp409
(dp410
g53
Nsg54
g1
(g55
g56
I3694
tRp411
sg58
g1
(g55
g56
I2739
tRp412
sg60
I1
sg61
Nsbsg111
S'gene'
p413
sg113
(dp414
S'note'
p415
(lp416
S'Nd1; NADH1'
p417
asS'db_xref'
p418
(lp419
S'GeneID:26193'
p420
aS'RGD:620555'
p421
asS'gene'
p422
(lp423
S'ND1'
p424
asS'nomenclature'
p425
(lp426
S'Official Symbol: mt-Nd1 | Name: NADH dehydrogenase 1, mitochondrial | Provided by: RGD:620555'
p427
assbag1
(g99
g3
NtRp428
(dp429
g102
(lp430
sg104
S''
sg105
g106
sg48
g1
(g50
g3
NtRp431
(dp432
g53
Nsg54
g1
(g55
g56
I3694
tRp433
sg58
g1
(g55
g56
I2739
tRp434
sg60
I1
sg61
Nsbsg111
S'CDS'
p435
sg113
(dp436
S'product'
p437
(lp438
S'NADH dehydrogenase subunit 1'
p439
asS'transl_except'
p440
(lp441
S'(pos:3694,aa:TERM)'
p442
asS'codon_start'
p443
(lp444
S'1'
asS'transl_table'
p445
(lp446
S'2'
asS'note'
p447
(lp448
S"TAA stop codon is completed by the addition of 3' A residues to the mRNA"
p449
asS'db_xref'
p450
(lp451
S'GI:110189715'
p452
aS'GeneID:26193'
p453
aS'RGD:620555'
p454
asS'translation'
p455
(lp456
S'MYFINILTLLIPILIAMAFLTLVERKILGYMQLRKGPNIVGPYGILQPFADAMKLFMKEPMRPLTTSMSLFIIAPTLSLTLALSLWIPLPMPHPLINLNLGMLFILATSSLSVYSILWSGWASNSKYSLFGALRAVAQTISYEVTMAIILLSVLLMSGSFSLQMLITTQEHIWLLIPAWPMAMMWYISTLAETNRAPFDLTEGESELVSGFNVEYAAGPFALFFMAEYTNIILMNALTSIVFLGPLYHINYPELYSTSFMTETLLLSTTFLWIRASYPRFRYDQLMHLLWKNFLPLTLAFCMWYISLPIFLAGIPPYT'
p457
asS'gene'
p458
(lp459
S'ND1'
p460
asS'protein_id'
p461
(lp462
S'YP_665629.1'
p463
assbag1
(g99
g3
NtRp464
(dp465
g102
(lp466
sg104
S''
sg105
g106
sg48
g1
(g50
g3
NtRp467
(dp468
g53
Nsg54
g1
(g55
g56
I3763
tRp469
sg58
g1
(g55
g56
I3694
tRp470
sg60
I1
sg61
Nsbsg111
S'gene'
p471
sg113
(dp472
S'db_xref'
p473
(lp474
S'GeneID:170605'
p475
asS'gene'
p476
(lp477
S'Trni'
p478
asS'gene_synonym'
p479
(lp480
S'mt-Ti'
p481
assbag1
(g99
g3
NtRp482
(dp483
g102
(lp484
sg104
S''
sg105
g106
sg48
g1
(g50
g3
NtRp485
(dp486
g53
Nsg54
g1
(g55
g56
I3763
tRp487
sg58
g1
(g55
g56
I3694
tRp488
sg60
I1
sg61
Nsbsg111
S'tRNA'
p489
sg113
(dp490
S'db_xref'
p491
(lp492
S'GeneID:170605'
p493
asS'product'
p494
(lp495
S'tRNA-Ile'
p496
asS'gene'
p497
(lp498
S'Trni'
p499
asS'gene_synonym'
p500
(lp501
S'mt-Ti'
p502
assbag1
(g99
g3
NtRp503
(dp504
g102
(lp505
sg104
S''
sg105
g106
sg48
g1
(g50
g3
NtRp506
(dp507
g53
Nsg54
g1
(g55
g56
I3831
tRp508
sg58
g1
(g55
g56
I3760
tRp509
sg60
I-1
sg61
Nsbsg111
S'gene'
p510
sg113
(dp511
S'db_xref'
p512
(lp513
S'GeneID:170606'
p514
asS'gene'
p515
(lp516
S'Trnq'
p517
asS'gene_synonym'
p518
(lp519
S'mt-Tq'
p520
assbag1
(g99
g3
NtRp521
(dp522
g102
(lp523
sg104
S''
sg105
g106
sg48
g1
(g50
g3
NtRp524
(dp525
g53
Nsg54
g1
(g55
g56
I3831
tRp526
sg58
g1
(g55
g56
I3760
tRp527
sg60
I-1
sg61
Nsbsg111
S'tRNA'
p528
sg113
(dp529
S'db_xref'
p530
(lp531
S'GeneID:170606'
p532
asS'product'
p533
(lp534
S'tRNA-Gln'
p535
asS'gene'
p536
(lp537
S'Trnq'
p538
asS'gene_synonym'
p539
(lp540
S'mt-Tq'
p541
assbag1
(g99
g3
NtRp542
(dp543
g102
(lp544
sg104
S''
sg105
g106
sg48
g1
(g50
g3
NtRp545
(dp546
g53
Nsg54
g1
(g55
g56
I3903
tRp547
sg58
g1
(g55
g56
I3834
tRp548
sg60
I1
sg61
Nsbsg111
S'gene'
p549
sg113
(dp550
S'db_xref'
p551
(lp552
S'GeneID:170607'
p553
asS'gene'
p554
(lp555
S'Trnm'
p556
asS'gene_synonym'
p557
(lp558
S'mt-Tm'
p559
assbag1
(g99
g3
NtRp560
(dp561
g102
(lp562
sg104
S''
sg105
g106
sg48
g1
(g50
g3
NtRp563
(dp564
g53
Nsg54
g1
(g55
g56
I3903
tRp565
sg58
g1
(g55
g56
I3834
tRp566
sg60
I1
sg61
Nsbsg111
S'tRNA'
p567
sg113
(dp568
S'db_xref'
p569
(lp570
S'GeneID:170607'
p571
asS'product'
p572
(lp573
S'tRNA-Met'
p574
asS'gene'
p575
(lp576
S'Trnm'
p577
asS'gene_synonym'
p578
(lp579
S'mt-Tm'
p580
assbag1
(g99
g3
NtRp581
(dp582
g102
(lp583
sg104
S''
sg105
g106
sg48
g1
(g50
g3
NtRp584
(dp585
g53
Nsg54
g1
(g55
g56
I4942
tRp586
sg58
g1
(g55
g56
I3903
tRp587
sg60
I1
sg61
Nsbsg111
S'gene'
p588
sg113
(dp589
S'note'
p590
(lp591
S'Nd2; NADH2'
p592
asS'db_xref'
p593
(lp594
S'GeneID:26194'
p595
aS'RGD:620556'
p596
asS'gene'
p597
(lp598
S'ND2'
p599
asS'nomenclature'
p600
(lp601
S'Official Symbol: mt-Nd2 | Name: NADH dehydrogenase 2, mitochondrial | Provided by: RGD:620556'
p602
assbag1
(g99
g3
NtRp603
(dp604
g102
(lp605
sg104
S''
sg105
g106
sg48
g1
(g50
g3
NtRp606
(dp607
g53
Nsg54
g1
(g55
g56
I4942
tRp608
sg58
g1
(g55
g56
I3903
tRp609
sg60
I1
sg61
Nsbsg111
S'CDS'
p610
sg113
(dp611
S'product'
p612
(lp613
S'NADH dehydrogenase subunit 2'
p614
asS'transl_except'
p615
(lp616
S'(pos:4942,aa:TERM)'
p617
asS'codon_start'
p618
(lp619
S'1'
asS'transl_table'
p620
(lp621
S'2'
asS'note'
p622
(lp623
S"TAA stop codon is completed by the addition of 3' A residues to the mRNA"
p624
asS'db_xref'
p625
(lp626
S'GI:110189716'
p627
aS'GeneID:26194'
p628
aS'RGD:620556'
p629
asS'translation'
p630
(lp631
S'MNPITLIIIYFTILMGPVITMSSSNLLLMWVGLEMSLLAIIPLLANKKSPRSTEAATKYFLTQATASMIILLVIILNYKQSGMWTLQQQTNNMLLNMMLISLAMKLGLAPFHYWLPEVTQGIPLHIGLILLTWQKIAPLSILYQFYQLLNPTITTILAISSVFVGAWGGLNQTQTRKIMAYSSIAHMGWMTAILPYNPNLTLLNLTIYILLTVPMFITLMTNSATTINTLSLAWNKTPMILTMTSIILLSLGGLPPLTGFLPKWAIISELLKNNCSTLSTLMAIMALLSLFFYTRLIYSMSLTMFPTNNNSKMISHHHQNPKHNFILPTLTVLSTLTLPLSSQLIT'
p632
asS'gene'
p633
(lp634
S'ND2'
p635
asS'protein_id'
p636
(lp637
S'YP_665630.1'
p638
assbag1
(g99
g3
NtRp639
(dp640
g102
(lp641
sg104
S''
sg105
g106
sg48
g1
(g50
g3
NtRp642
(dp643
g53
Nsg54
g1
(g55
g56
I5008
tRp644
sg58
g1
(g55
g56
I4942
tRp645
sg60
I1
sg61
Nsbsg111
S'gene'
p646
sg113
(dp647
S'db_xref'
p648
(lp649
S'GeneID:170608'
p650
asS'gene'
p651
(lp652
S'Trnw'
p653
asS'gene_synonym'
p654
(lp655
S'mt-Tw'
p656
assbag1
(g99
g3
NtRp657
(dp658
g102
(lp659
sg104
S''
sg105
g106
sg48
g1
(g50
g3
NtRp660
(dp661
g53
Nsg54
g1
(g55
g56
I5008
tRp662
sg58
g1
(g55
g56
I4942
tRp663
sg60
I1
sg61
Nsbsg111
S'tRNA'
p664
sg113
(dp665
S'db_xref'
p666
(lp667
S'GeneID:170608'
p668
asS'product'
p669
(lp670
S'tRNA-Trp'
p671
asS'gene'
p672
(lp673
S'Trnw'
p674
asS'gene_synonym'
p675
(lp676
S'mt-Tw'
p677
assbag1
(g99
g3
NtRp678
(dp679
g102
(lp680
sg104
S''
sg105
g106
sg48
g1
(g50
g3
NtRp681
(dp682
g53
Nsg54
g1
(g55
g56
I5078
tRp683
sg58
g1
(g55
g56
I5009
tRp684
sg60
I-1
sg61
Nsbsg111
S'gene'
p685
sg113
(dp686
S'db_xref'
p687
(lp688
S'GeneID:170609'
p689
asS'gene'
p690
(lp691
S'Trna'
p692
asS'gene_synonym'
p693
(lp694
S'mt-Ta'
p695
assbag1
(g99
g3
NtRp696
(dp697
g102
(lp698
sg104
S''
sg105
g106
sg48
g1
(g50
g3
NtRp699
(dp700
g53
Nsg54
g1
(g55
g56
I5078
tRp701
sg58
g1
(g55
g56
I5009
tRp702
sg60
I-1
sg61
Nsbsg111
S'tRNA'
p703
sg113
(dp704
S'db_xref'
p705
(lp706
S'GeneID:170609'
p707
asS'product'
p708
(lp709
S'tRNA-Ala'
p710
asS'gene'
p711
(lp712
S'Trna'
p713
asS'gene_synonym'
p714
(lp715
S'mt-Ta'
p716
assbag1
(g99
g3
NtRp717
(dp718
g102
(lp719
sg104
S''
sg105
g106
sg48
g1
(g50
g3
NtRp720
(dp721
g53
Nsg54
g1
(g55
g56
I5152
tRp722
sg58
g1
(g55
g56
I5080
tRp723
sg60
I-1
sg61
Nsbsg111
S'gene'
p724
sg113
(dp725
S'db_xref'
p726
(lp727
S'GeneID:170610'
p728
asS'gene'
p729
(lp730
S'Trnn'
p731
asS'gene_synonym'
p732
(lp733
S'mt-Tn'
p734
assbag1
(g99
g3
NtRp735
(dp736
g102
(lp737
sg104
S''
sg105
g106
sg48
g1
(g50
g3
NtRp738
(dp739
g53
Nsg54
g1
(g55
g56
I5152
tRp740
sg58
g1
(g55
g56
I5080
tRp741
sg60
I-1
sg61
Nsbsg111
S'tRNA'
p742
sg113
(dp743
S'db_xref'
p744
(lp745
S'GeneID:170610'
p746
asS'product'
p747
(lp748
S'tRNA-Asn'
p749
asS'gene'
p750
(lp751
S'Trnn'
p752
asS'gene_synonym'
p753
(lp754
S'mt-Tn'
p755
assbag1
(g99
g3
NtRp756
(dp757
g102
(lp758
sg104
S''
sg105
g106
sg48
g1
(g50
g3
NtRp759
(dp760
g53
Nsg54
g1
(g55
g56
I5184
tRp761
sg58
g1
(g55
g56
I5152
tRp762
sg60
I1
sg61
Nsbsg111
S'rep_origin'
p763
sg113
(dp764
S'direction'
p765
(lp766
S'right'
p767
assbag1
(g99
g3
NtRp768
(dp769
g102
(lp770
sg104
S''
sg105
g106
sg48
g1
(g50
g3
NtRp771
(dp772
g53
Nsg54
g1
(g55
g56
I5252
tRp773
sg58
g1
(g55
g56
I5184
tRp774
sg60
I-1
sg61
Nsbsg111
S'gene'
p775
sg113
(dp776
S'db_xref'
p777
(lp778
S'GeneID:170611'
p779
asS'gene'
p780
(lp781
S'Trnc'
p782
asS'gene_synonym'
p783
(lp784
S'mt-Tc'
p785
assbag1
(g99
g3
NtRp786
(dp787
g102
(lp788
sg104
S''
sg105
g106
sg48
g1
(g50
g3
NtRp789
(dp790
g53
Nsg54
g1
(g55
g56
I5252
tRp791
sg58
g1
(g55
g56
I5184
tRp792
sg60
I-1
sg61
Nsbsg111
S'tRNA'
p793
sg113
(dp794
S'db_xref'
p795
(lp796
S'GeneID:170611'
p797
asS'product'
p798
(lp799
S'tRNA-Cys'
p800
asS'gene'
p801
(lp802
S'Trnc'
p803
asS'gene_synonym'
p804
(lp805
S'mt-Tc'
p806
assbag1
(g99
g3
NtRp807
(dp808
g102
(lp809
sg104
S''
sg105
g106
sg48
g1
(g50
g3
NtRp810
(dp811
g53
Nsg54
g1
(g55
g56
I5321
tRp812
sg58
g1
(g55
g56
I5255
tRp813
sg60
I-1
sg61
Nsbsg111
S'gene'
p814
sg113
(dp815
S'db_xref'
p816
(lp817
S'GeneID:170612'
p818
asS'gene'
p819
(lp820
S'Trny'
p821
asS'gene_synonym'
p822
(lp823
S'mt-Ty'
p824
assbag1
(g99
g3
NtRp825
(dp826
g102
(lp827
sg104
S''
sg105
g106
sg48
g1
(g50
g3
NtRp828
(dp829
g53
Nsg54
g1
(g55
g56
I5321
tRp830
sg58
g1
(g55
g56
I5255
tRp831
sg60
I-1
sg61
Nsbsg111
S'tRNA'
p832
sg113
(dp833
S'db_xref'
p834
(lp835
S'GeneID:170612'
p836
asS'product'
p837
(lp838
S'tRNA-Tyr'
p839
asS'gene'
p840
(lp841
S'Trny'
p842
asS'gene_synonym'
p843
(lp844
S'mt-Ty'
p845
assbag1
(g99
g3
NtRp846
(dp847
g102
(lp848
sg104
S''
sg105
g106
sg48
g1
(g50
g3
NtRp849
(dp850
g53
Nsg54
g1
(g55
g56
I6867
tRp851
sg58
g1
(g55
g56
I5322
tRp852
sg60
I1
sg61
Nsbsg111
S'gene'
p853
sg113
(dp854
S'note'
p855
(lp856
S'Co1; Cox1'
p857
asS'db_xref'
p858
(lp859
S'GeneID:26195'
p860
aS'RGD:621871'
p861
asS'gene'
p862
(lp863
S'COX1'
p864
asS'gene_synonym'
p865
(lp866
S'COI'
p867
asS'nomenclature'
p868
(lp869
S'Official Symbol: mt-Co1 | Name: cytochrome c oxidase I, mitochondrial | Provided by: RGD:621871'
p870
assbag1
(g99
g3
NtRp871
(dp872
g102
(lp873
sg104
S''
sg105
g106
sg48
g1
(g50
g3
NtRp874
(dp875
g53
Nsg54
g1
(g55
g56
I6867
tRp876
sg58
g1
(g55
g56
I5322
tRp877
sg60
I1
sg61
Nsbsg111
S'CDS'
p878
sg113
(dp879
S'product'
p880
(lp881
S'cytochrome c oxidase subunit I'
p882
asS'codon_start'
p883
(lp884
S'1'
asS'gene_synonym'
p885
(lp886
S'COI'
p887
asS'transl_table'
p888
(lp889
S'2'
asS'note'
p890
(lp891
S'cytochrome c oxidase subunit 1'
p892
asS'db_xref'
p893
(lp894
S'GI:110189717'
p895
aS'GeneID:26195'
p896
aS'RGD:621871'
p897
asS'translation'
p898
(lp899
S'MLVNRWLFSTNHKDIGTLYLLFGAWAGMVGTALSILIRAELGQPGALLGDDQIYNVIVTAHAFVMIFFMVMPMMIGGFGNWLVPLMIGAPDMAFPRMNNMSFWLLPPSFLLLLASSMVEAGAGTGWTVYPPLAGNLAHAGASVDLTIFSLHLAGVSSILGAINFITTIINMKPPAMTQYQTPLFVWSVLITAVLLLLSLPVLAAGITMLLTDRNLNTTFFDPAGGGDPILYQHLFWFFGHPEVYILILPGFGIISHVVTYYSGKKEPFGYMGMVWAMMSIGFLGFIVWAHHMFTVGLDVDTRAYFTSATMIIAIPTGVKVFSWLATLHGGNIKWSPAMLWALGFIFLFTVGGLTGIVLSNSSLDIVLHDTYYVVAHFHYVLSMGAVFAIMAGFVHWFPLFSGYTLNDTWAKAHFAIMFVGVNMTFFPQHFLGLAGMPRRYSDYPDAYTTWNTVSSMGSFISLTAVLVMIFMIWEAFASKREVLSISYSSTNLEWLHGCPPPYHTFEEPSYVKVK'
p900
asS'gene'
p901
(lp902
S'COX1'
p903
asS'protein_id'
p904
(lp905
S'YP_665631.1'
p906
assbag1
(g99
g3
NtRp907
(dp908
g102
(lp909
sg104
S''
sg105
g106
sg48
g1
(g50
g3
NtRp910
(dp911
g53
Nsg54
g1
(g55
g56
I6933
tRp912
sg58
g1
(g55
g56
I6864
tRp913
sg60
I-1
sg61
Nsbsg111
S'gene'
p914
sg113
(dp915
S'db_xref'
p916
(lp917
S'GeneID:170613'
p918
asS'gene'
p919
(lp920
S'Trns1'
p921
asS'gene_synonym'
p922
(lp923
S'mt-Ts1'
p924
assbag1
(g99
g3
NtRp925
(dp926
g102
(lp927
sg104
S''
sg105
g106
sg48
g1
(g50
g3
NtRp928
(dp929
g53
Nsg54
g1
(g55
g56
I6933
tRp930
sg58
g1
(g55
g56
I6864
tRp931
sg60
I-1
sg61
Nsbsg111
S'tRNA'
p932
sg113
(dp933
S'codon_recognized'
p934
(lp935
S'UCN'
p936
asS'db_xref'
p937
(lp938
S'GeneID:170613'
p939
asS'product'
p940
(lp941
S'tRNA-Ser'
p942
asS'gene'
p943
(lp944
S'Trns1'
p945
asS'gene_synonym'
p946
(lp947
S'mt-Ts1'
p948
assbag1
(g99
g3
NtRp949
(dp950
g102
(lp951
sg104
S''
sg105
g106
sg48
g1
(g50
g3
NtRp952
(dp953
g53
Nsg54
g1
(g55
g56
I7004
tRp954
sg58
g1
(g55
g56
I6936
tRp955
sg60
I1
sg61
Nsbsg111
S'gene'
p956
sg113
(dp957
S'db_xref'
p958
(lp959
S'GeneID:170614'
p960
asS'gene'
p961
(lp962
S'Trnd'
p963
asS'gene_synonym'
p964
(lp965
S'mt-Td'
p966
assbag1
(g99
g3
NtRp967
(dp968
g102
(lp969
sg104
S''
sg105
g106
sg48
g1
(g50
g3
NtRp970
(dp971
g53
Nsg54
g1
(g55
g56
I7004
tRp972
sg58
g1
(g55
g56
I6936
tRp973
sg60
I1
sg61
Nsbsg111
S'tRNA'
p974
sg113
(dp975
S'db_xref'
p976
(lp977
S'GeneID:170614'
p978
asS'product'
p979
(lp980
S'tRNA-Asp'
p981
asS'gene'
p982
(lp983
S'Trnd'
p984
asS'gene_synonym'
p985
(lp986
S'mt-Td'
p987
assbag1
(g99
g3
NtRp988
(dp989
g102
(lp990
sg104
S''
sg105
g106
sg48
g1
(g50
g3
NtRp991
(dp992
g53
Nsg54
g1
(g55
g56
I7689
tRp993
sg58
g1
(g55
g56
I7005
tRp994
sg60
I1
sg61
Nsbsg111
S'gene'
p995
sg113
(dp996
S'note'
p997
(lp998
S'COXII; Cox2; co2; COII'
p999
asS'db_xref'
p1000
(lp1001
S'GeneID:26198'
p1002
aS'RGD:621872'
p1003
asS'gene'
p1004
(lp1005
S'COX2'
p1006
asS'gene_synonym'
p1007
(lp1008
S'COII'
p1009
asS'nomenclature'
p1010
(lp1011
S'Official Symbol: mt-Co2 | Name: cytochrome c oxidase II, mitochondrial | Provided by: RGD:621872'
p1012
assbag1
(g99
g3
NtRp1013
(dp1014
g102
(lp1015
sg104
S''
sg105
g106
sg48
g1
(g50
g3
NtRp1016
(dp1017
g53
Nsg54
g1
(g55
g56
I7689
tRp1018
sg58
g1
(g55
g56
I7005
tRp1019
sg60
I1
sg61
Nsbsg111
S'CDS'
p1020
sg113
(dp1021
S'product'
p1022
(lp1023
S'cytochrome c oxidase subunit II'
p1024
asS'codon_start'
p1025
(lp1026
S'1'
asS'gene_synonym'
p1027
(lp1028
S'COII'
p1029
asS'transl_table'
p1030
(lp1031
S'2'
asS'note'
p1032
(lp1033
S'cytochrome c oxidase subunit 2'
p1034
asS'db_xref'
p1035
(lp1036
S'GI:110189718'
p1037
aS'GeneID:26198'
p1038
aS'RGD:621872'
p1039
asS'translation'
p1040
(lp1041
S'MAYPFQLGLQDATSPIMEELTNFHDHTLMIVFLISSLVLYIISLMLTTKLTHTSTMDAQEVETIWTILPAVILILIALPSLRILYMMDEINNPVLTVKTMGHQWYWSYEYTDYEDLCFDSYMIPTNDLKPGELRLLEVDNRVVLPMELPIRMLISSEDVLHSWAVPSLGLKTDAIPGRLNQATVTSNRPGLFYGQCSEICGSNHSFMPIVLEMVPLKYFENWSASMI'
p1042
asS'gene'
p1043
(lp1044
S'COX2'
p1045
asS'protein_id'
p1046
(lp1047
S'YP_665632.1'
p1048
assbag1
(g99
g3
NtRp1049
(dp1050
g102
(lp1051
sg104
S''
sg105
g106
sg48
g1
(g50
g3
NtRp1052
(dp1053
g53
Nsg54
g1
(g55
g56
I7756
tRp1054
sg58
g1
(g55
g56
I7692
tRp1055
sg60
I1
sg61
Nsbsg111
S'gene'
p1056
sg113
(dp1057
S'db_xref'
p1058
(lp1059
S'GeneID:170615'
p1060
asS'gene'
p1061
(lp1062
S'Trnk'
p1063
asS'gene_synonym'
p1064
(lp1065
S'mt-Tk'
p1066
assbag1
(g99
g3
NtRp1067
(dp1068
g102
(lp1069
sg104
S''
sg105
g106
sg48
g1
(g50
g3
NtRp1070
(dp1071
g53
Nsg54
g1
(g55
g56
I7756
tRp1072
sg58
g1
(g55
g56
I7692
tRp1073
sg60
I1
sg61
Nsbsg111
S'tRNA'
p1074
sg113
(dp1075
S'db_xref'
p1076
(lp1077
S'GeneID:170615'
p1078
asS'product'
p1079
(lp1080
S'tRNA-Lys'
p1081
asS'gene'
p1082
(lp1083
S'Trnk'
p1084
asS'gene_synonym'
p1085
(lp1086
S'mt-Tk'
p1087
assbag1
(g99
g3
NtRp1088
(dp1089
g102
(lp1090
sg104
S''
sg105
g106
sg48
g1
(g50
g3
NtRp1091
(dp1092
g53
Nsg54
g1
(g55
g56
I7961
tRp1093
sg58
g1
(g55
g56
I7757
tRp1094
sg60
I1
sg61
Nsbsg111
S'gene'
p1095
sg113
(dp1096
S'note'
p1097
(lp1098
S'ATPase8'
p1099
asS'db_xref'
p1100
(lp1101
S'GeneID:26196'
p1102
aS'RGD:621240'
p1103
asS'gene'
p1104
(lp1105
S'ATP8'
p1106
asS'nomenclature'
p1107
(lp1108
S'Official Symbol: mt-Atp8 | Name: ATP synthase 8, mitochondrial | Provided by: RGD:621240'
p1109
assbag1
(g99
g3
NtRp1110
(dp1111
g102
(lp1112
sg104
S''
sg105
g106
sg48
g1
(g50
g3
NtRp1113
(dp1114
g53
Nsg54
g1
(g55
g56
I7961
tRp1115
sg58
g1
(g55
g56
I7757
tRp1116
sg60
I1
sg61
Nsbsg111
S'CDS'
p1117
sg113
(dp1118
S'product'
p1119
(lp1120
S'ATP synthase F0 subunit 8'
p1121
asS'codon_start'
p1122
(lp1123
S'1'
asS'transl_table'
p1124
(lp1125
S'2'
asS'note'
p1126
(lp1127
S'ATPase subunit 8'
p1128
asS'db_xref'
p1129
(lp1130
S'GI:110189719'
p1131
aS'GeneID:26196'
p1132
aS'RGD:621240'
p1133
asS'translation'
p1134
(lp1135
S'MPQLDTSTWFITIISSMATLFILFQLKISSQTFPAPPSPKTMATEKTNNPWESKWTKTYLPLSLPPQ'
p1136
asS'gene'
p1137
(lp1138
S'ATP8'
p1139
asS'protein_id'
p1140
(lp1141
S'YP_665633.1'
p1142
assbag1
(g99
g3
NtRp1143
(dp1144
g102
(lp1145
sg104
S''
sg105
g106
sg48
g1
(g50
g3
NtRp1146
(dp1147
g53
Nsg54
g1
(g55
g56
I8599
tRp1148
sg58
g1
(g55
g56
I7918
tRp1149
sg60
I1
sg61
Nsbsg111
S'gene'
p1150
sg113
(dp1151
S'db_xref'
p1152
(lp1153
S'GeneID:26197'
p1154
aS'RGD:621239'
p1155
asS'gene'
p1156
(lp1157
S'ATP6'
p1158
asS'nomenclature'
p1159
(lp1160
S'Official Symbol: mt-Atp6 | Name: ATP synthase 6, mitochondrial | Provided by: RGD:621239'
p1161
assbag1
(g99
g3
NtRp1162
(dp1163
g102
(lp1164
sg104
S''
sg105
g106
sg48
g1
(g50
g3
NtRp1165
(dp1166
g53
Nsg54
g1
(g55
g56
I8599
tRp1167
sg58
g1
(g55
g56
I7918
tRp1168
sg60
I1
sg61
Nsbsg111
S'CDS'
p1169
sg113
(dp1170
S'product'
p1171
(lp1172
S'ATP synthase F0 subunit 6'
p1173
asS'codon_start'
p1174
(lp1175
S'1'
asS'transl_table'
p1176
(lp1177
S'2'
asS'note'
p1178
(lp1179
S'ATPase subunit 6'
p1180
asS'db_xref'
p1181
(lp1182
S'GI:110189720'
p1183
aS'GeneID:26197'
p1184
aS'RGD:621239'
p1185
asS'translation'
p1186
(lp1187
S'MNENLFASFITPTMMGLPIVVTIIMFPSILFPSSERLISNRLHSFQHWLIKLIIKQMMLIHTPKGRTWALMIVSLIMFIGSTNLLGLLPHTFTPTTQLSMNLSMAIPLWAGAVILGFRHKLKNSLAHFLPQGTPISLIPMLIIIETISLFIQPMALAVRLTANITAGHLLMHLIGGATLVLMDISPPTATITFIILLLLTVLEFAVALIQAYVFTLLVSLYLHDNT'
p1188
asS'gene'
p1189
(lp1190
S'ATP6'
p1191
asS'protein_id'
p1192
(lp1193
S'YP_665634.1'
p1194
assbag1
(g99
g3
NtRp1195
(dp1196
g102
(lp1197
sg104
S''
sg105
g106
sg48
g1
(g50
g3
NtRp1198
(dp1199
g53
Nsg54
g1
(g55
g56
I9382
tRp1200
sg58
g1
(g55
g56
I8598
tRp1201
sg60
I1
sg61
Nsbsg111
S'gene'
p1202
sg113
(dp1203
S'note'
p1204
(lp1205
S'Cox3; Co3; COIII'
p1206
asS'db_xref'
p1207
(lp1208
S'GeneID:26204'
p1209
aS'RGD:621873'
p1210
asS'gene'
p1211
(lp1212
S'COX3'
p1213
asS'nomenclature'
p1214
(lp1215
S'Official Symbol: mt-Co3 | Name: cytochrome c oxidase III, mitochondrial | Provided by: RGD:621873'
p1216
assbag1
(g99
g3
NtRp1217
(dp1218
g102
(lp1219
sg104
S''
sg105
g106
sg48
g1
(g50
g3
NtRp1220
(dp1221
g53
Nsg54
g1
(g55
g56
I9382
tRp1222
sg58
g1
(g55
g56
I8598
tRp1223
sg60
I1
sg61
Nsbsg111
S'CDS'
p1224
sg113
(dp1225
S'product'
p1226
(lp1227
S'cytochrome c oxidase subunit III'
p1228
asS'transl_except'
p1229
(lp1230
S'(pos:9382,aa:TERM)'
p1231
asS'codon_start'
p1232
(lp1233
S'1'
asS'transl_table'
p1234
(lp1235
S'2'
asS'note'
p1236
(lp1237
S"cytochrome c oxidase subunit 3; TAA stop codon is completed by the addition of 3' A residues to the mRNA"
p1238
asS'db_xref'
p1239
(lp1240
S'GI:110189721'
p1241
aS'GeneID:26204'
p1242
aS'RGD:621873'
p1243
asS'translation'
p1244
(lp1245
S'MTHQTHAYHMVNPSPWPLTGALSALLLTSGLVMWFHYNSTILLSLGLLTNILTMYQWWRDIIREGTYQGHHTPIVQKGLRYGMILFIVSEVFFFAGFFWAFYHSSLVPTHDLGGCWPPTGITPLNPLEVPLLNTSVLLASGVSITWAHHSLMEGNRNHMNQALLITILLGLYFTILQASEYFETSFSISDGIYGSTFFMATGFHGLHVIIGSTFLIVCLLRQLKFHFTSKHHFGFEAAAWYWHFVDVVWLFLYVSIYWWGS'
p1246
asS'gene'
p1247
(lp1248
S'COX3'
p1249
asS'protein_id'
p1250
(lp1251
S'YP_665635.1'
p1252
assbag1
(g99
g3
NtRp1253
(dp1254
g102
(lp1255
sg104
S''
sg105
g106
sg48
g1
(g50
g3
NtRp1256
(dp1257
g53
Nsg54
g1
(g55
g56
I9450
tRp1258
sg58
g1
(g55
g56
I9382
tRp1259
sg60
I1
sg61
Nsbsg111
S'gene'
p1260
sg113
(dp1261
S'db_xref'
p1262
(lp1263
S'GeneID:359816'
p1264
asS'gene'
p1265
(lp1266
S'Trng'
p1267
asS'gene_synonym'
p1268
(lp1269
S'mt-Tg'
p1270
assbag1
(g99
g3
NtRp1271
(dp1272
g102
(lp1273
sg104
S''
sg105
g106
sg48
g1
(g50
g3
NtRp1274
(dp1275
g53
Nsg54
g1
(g55
g56
I9450
tRp1276
sg58
g1
(g55
g56
I9382
tRp1277
sg60
I1
sg61
Nsbsg111
S'tRNA'
p1278
sg113
(dp1279
S'db_xref'
p1280
(lp1281
S'GeneID:359816'
p1282
asS'product'
p1283
(lp1284
S'tRNA-Gly'
p1285
asS'gene'
p1286
(lp1287
S'Trng'
p1288
asS'gene_synonym'
p1289
(lp1290
S'mt-Tg'
p1291
assbag1
(g99
g3
NtRp1292
(dp1293
g102
(lp1294
sg104
S''
sg105
g106
sg48
g1
(g50
g3
NtRp1295
(dp1296
g53
Nsg54
g1
(g55
g56
I9798
tRp1297
sg58
g1
(g55
g56
I9450
tRp1298
sg60
I1
sg61
Nsbsg111
S'gene'
p1299
sg113
(dp1300
S'note'
p1301
(lp1302
S'Nd3; NADH3'
p1303
asS'db_xref'
p1304
(lp1305
S'GeneID:26199'
p1306
aS'RGD:620557'
p1307
asS'gene'
p1308
(lp1309
S'ND3'
p1310
asS'nomenclature'
p1311
(lp1312
S'Official Symbol: mt-Nd3 | Name: NADH dehydrogenase 3, mitochondrial | Provided by: RGD:620557'
p1313
assbag1
(g99
g3
NtRp1314
(dp1315
g102
(lp1316
sg104
S''
sg105
g106
sg48
g1
(g50
g3
NtRp1317
(dp1318
g53
Nsg54
g1
(g55
g56
I9798
tRp1319
sg58
g1
(g55
g56
I9450
tRp1320
sg60
I1
sg61
Nsbsg111
S'CDS'
p1321
sg113
(dp1322
S'product'
p1323
(lp1324
S'NADH dehydrogenase subunit 3'
p1325
asS'codon_start'
p1326
(lp1327
S'1'
asS'transl_table'
p1328
(lp1329
S'2'
asS'db_xref'
p1330
(lp1331
S'GI:110189722'
p1332
aS'GeneID:26199'
p1333
aS'RGD:620557'
p1334
asS'translation'
p1335
(lp1336
S'MNLLIIITINITLSFILISIAFWLPQMNLYSEKANPYECGFDPTSSARLPFSMKFFLVAITFLLFDLEIALLLPLPWAIQTTNTTTMMATAFILVTILALGLSYEWTQKGLEWTE'
p1337
asS'gene'
p1338
(lp1339
S'ND3'
p1340
asS'protein_id'
p1341
(lp1342
S'YP_665636.1'
p1343
assbag1
(g99
g3
NtRp1344
(dp1345
g102
(lp1346
sg104
S''
sg105
g106
sg48
g1
(g50
g3
NtRp1347
(dp1348
g53
Nsg54
g1
(g55
g56
I9867
tRp1349
sg58
g1
(g55
g56
I9799
tRp1350
sg60
I1
sg61
Nsbsg111
S'gene'
p1351
sg113
(dp1352
S'db_xref'
p1353
(lp1354
S'GeneID:170616'
p1355
asS'gene'
p1356
(lp1357
S'Trnr'
p1358
asS'gene_synonym'
p1359
(lp1360
S'mt-Tr'
p1361
assbag1
(g99
g3
NtRp1362
(dp1363
g102
(lp1364
sg104
S''
sg105
g106
sg48
g1
(g50
g3
NtRp1365
(dp1366
g53
Nsg54
g1
(g55
g56
I9867
tRp1367
sg58
g1
(g55
g56
I9799
tRp1368
sg60
I1
sg61
Nsbsg111
S'tRNA'
p1369
sg113
(dp1370
S'db_xref'
p1371
(lp1372
S'GeneID:170616'
p1373
asS'product'
p1374
(lp1375
S'tRNA-Arg'
p1376
asS'gene'
p1377
(lp1378
S'Trnr'
p1379
asS'gene_synonym'
p1380
(lp1381
S'mt-Tr'
p1382
assbag1
(g99
g3
NtRp1383
(dp1384
g102
(lp1385
sg104
S''
sg105
g106
sg48
g1
(g50
g3
NtRp1386
(dp1387
g53
Nsg54
g1
(g55
g56
I10166
tRp1388
sg58
g1
(g55
g56
I9869
tRp1389
sg60
I1
sg61
Nsbsg111
S'gene'
p1390
sg113
(dp1391
S'note'
p1392
(lp1393
S'Nd4l; NADH4L'
p1394
asS'db_xref'
p1395
(lp1396
S'GeneID:26200'
p1397
aS'RGD:620494'
p1398
asS'gene'
p1399
(lp1400
S'ND4L'
p1401
asS'nomenclature'
p1402
(lp1403
S'Official Symbol: mt-Nd4l | Name: NADH dehdrogenase 4L, mitochondrial | Provided by: RGD:620494'
p1404
assbag1
(g99
g3
NtRp1405
(dp1406
g102
(lp1407
sg104
S''
sg105
g106
sg48
g1
(g50
g3
NtRp1408
(dp1409
g53
Nsg54
g1
(g55
g56
I10166
tRp1410
sg58
g1
(g55
g56
I9869
tRp1411
sg60
I1
sg61
Nsbsg111
S'CDS'
p1412
sg113
(dp1413
S'product'
p1414
(lp1415
S'NADH dehydrogenase subunit 4L'
p1416
asS'codon_start'
p1417
(lp1418
S'1'
asS'transl_table'
p1419
(lp1420
S'2'
asS'db_xref'
p1421
(lp1422
S'GI:110189723'
p1423
aS'GeneID:26200'
p1424
aS'RGD:620494'
p1425
asS'translation'
p1426
(lp1427
S'MTSAFLNLTMAFTLSLLGTFMFRSHLMSTLLCLEGMMLSLFVMTSTSTLNSNSMISMTIPITILVFAACEAAVGLALLVKISNTYGTDYVQNLNLLQC'
p1428
asS'gene'
p1429
(lp1430
S'ND4L'
p1431
asS'protein_id'
p1432
(lp1433
S'YP_665637.1'
p1434
assbag1
(g99
g3
NtRp1435
(dp1436
g102
(lp1437
sg104
S''
sg105
g106
sg48
g1
(g50
g3
NtRp1438
(dp1439
g53
Nsg54
g1
(g55
g56
I11537
tRp1440
sg58
g1
(g55
g56
I10159
tRp1441
sg60
I1
sg61
Nsbsg111
S'gene'
p1442
sg113
(dp1443
S'note'
p1444
(lp1445
S'NADH4'
p1446
asS'db_xref'
p1447
(lp1448
S'GeneID:26201'
p1449
aS'RGD:620559'
p1450
asS'gene'
p1451
(lp1452
S'ND4'
p1453
asS'nomenclature'
p1454
(lp1455
S'Official Symbol: mt-Nd4 | Name: NADH dehydrogenase 4, mitochondrial | Provided by: RGD:620559'
p1456
assbag1
(g99
g3
NtRp1457
(dp1458
g102
(lp1459
sg104
S''
sg105
g106
sg48
g1
(g50
g3
NtRp1460
(dp1461
g53
Nsg54
g1
(g55
g56
I11537
tRp1462
sg58
g1
(g55
g56
I10159
tRp1463
sg60
I1
sg61
Nsbsg111
S'CDS'
p1464
sg113
(dp1465
S'product'
p1466
(lp1467
S'NADH dehydrogenase subunit 4'
p1468
asS'transl_except'
p1469
(lp1470
S'(pos:11537,aa:TERM)'
p1471
asS'codon_start'
p1472
(lp1473
S'1'
asS'transl_table'
p1474
(lp1475
S'2'
asS'note'
p1476
(lp1477
S"TAA stop codon is completed by the addition of 3' A residues to the mRNA"
p1478
asS'db_xref'
p1479
(lp1480
S'GI:110189724'
p1481
aS'GeneID:26201'
p1482
aS'RGD:620559'
p1483
asS'translation'
p1484
(lp1485
S'MLKIIFPSIMLLPLTWLSANKKIWTNVTSYSFLVSLLSLSLLWQNDENYLNFSVMFSSDPLSTPLIILTTWLLPLMMLASQNHMKKENMMHQKLYISMLISLQILLIMTFSATELILFYILFEATLIPTLIIITRWGNQTERLNAGIYFLFYTLIGSIPLLIALISIQNSMGTLNFLILSLTTHPLPSTWSNTILWLACMMAFMIKMPLYGVHLWLPKAHVEAPIAGSMILAAILLKLGGYGMMRVSIILDPLTKSLAYPFIILSLWGMIMTSSICLRQTDLKSLIAYSSVSHMALVITAIMIQTPWSFMGATMLMIAHGLTSSLLFCLANTNYERIHSRTMIMARGLQMIFPLMATWWLLASLANLALPPLINLMGELFIVMATFSWSNPSIILMATNIVITGIYSMYMIITTQRGKLTSHMNNLQPSHTRELTLMALHIIPLMLLTINPKLITGLTM'
p1486
asS'gene'
p1487
(lp1488
S'ND4'
p1489
asS'protein_id'
p1490
(lp1491
S'YP_665638.1'
p1492
assbag1
(g99
g3
NtRp1493
(dp1494
g102
(lp1495
sg104
S''
sg105
g106
sg48
g1
(g50
g3
NtRp1496
(dp1497
g53
Nsg54
g1
(g55
g56
I11605
tRp1498
sg58
g1
(g55
g56
I11537
tRp1499
sg60
I1
sg61
Nsbsg111
S'gene'
p1500
sg113
(dp1501
S'db_xref'
p1502
(lp1503
S'GeneID:170618'
p1504
asS'gene'
p1505
(lp1506
S'Trnh'
p1507
asS'gene_synonym'
p1508
(lp1509
S'mt-Th'
p1510
assbag1
(g99
g3
NtRp1511
(dp1512
g102
(lp1513
sg104
S''
sg105
g106
sg48
g1
(g50
g3
NtRp1514
(dp1515
g53
Nsg54
g1
(g55
g56
I11605
tRp1516
sg58
g1
(g55
g56
I11537
tRp1517
sg60
I1
sg61
Nsbsg111
S'tRNA'
p1518
sg113
(dp1519
S'db_xref'
p1520
(lp1521
S'GeneID:170618'
p1522
asS'product'
p1523
(lp1524
S'tRNA-His'
p1525
asS'gene'
p1526
(lp1527
S'Trnh'
p1528
asS'gene_synonym'
p1529
(lp1530
S'mt-Th'
p1531
assbag1
(g99
g3
NtRp1532
(dp1533
g102
(lp1534
sg104
S''
sg105
g106
sg48
g1
(g50
g3
NtRp1535
(dp1536
g53
Nsg54
g1
(g55
g56
I11665
tRp1537
sg58
g1
(g55
g56
I11605
tRp1538
sg60
I1
sg61
Nsbsg111
S'gene'
p1539
sg113
(dp1540
S'db_xref'
p1541
(lp1542
S'GeneID:359843'
p1543
asS'gene'
p1544
(lp1545
S'Trns2'
p1546
asS'gene_synonym'
p1547
(lp1548
S'mt-Ts2'
p1549
assbag1
(g99
g3
NtRp1550
(dp1551
g102
(lp1552
sg104
S''
sg105
g106
sg48
g1
(g50
g3
NtRp1553
(dp1554
g53
Nsg54
g1
(g55
g56
I11665
tRp1555
sg58
g1
(g55
g56
I11605
tRp1556
sg60
I1
sg61
Nsbsg111
S'tRNA'
p1557
sg113
(dp1558
S'codon_recognized'
p1559
(lp1560
S'AGY'
p1561
asS'db_xref'
p1562
(lp1563
S'GeneID:359843'
p1564
asS'product'
p1565
(lp1566
S'tRNA-Ser'
p1567
asS'gene'
p1568
(lp1569
S'Trns2'
p1570
asS'gene_synonym'
p1571
(lp1572
S'mt-Ts2'
p1573
assbag1
(g99
g3
NtRp1574
(dp1575
g102
(lp1576
sg104
S''
sg105
g106
sg48
g1
(g50
g3
NtRp1577
(dp1578
g53
Nsg54
g1
(g55
g56
I11735
tRp1579
sg58
g1
(g55
g56
I11664
tRp1580
sg60
I1
sg61
Nsbsg111
S'gene'
p1581
sg113
(dp1582
S'db_xref'
p1583
(lp1584
S'GeneID:359842'
p1585
asS'gene'
p1586
(lp1587
S'Trnl2'
p1588
asS'gene_synonym'
p1589
(lp1590
S'mt-T2'
p1591
assbag1
(g99
g3
NtRp1592
(dp1593
g102
(lp1594
sg104
S''
sg105
g106
sg48
g1
(g50
g3
NtRp1595
(dp1596
g53
Nsg54
g1
(g55
g56
I11735
tRp1597
sg58
g1
(g55
g56
I11664
tRp1598
sg60
I1
sg61
Nsbsg111
S'tRNA'
p1599
sg113
(dp1600
S'codon_recognized'
p1601
(lp1602
S'CUN'
p1603
asS'db_xref'
p1604
(lp1605
S'GeneID:359842'
p1606
asS'product'
p1607
(lp1608
S'tRNA-Leu'
p1609
asS'gene'
p1610
(lp1611
S'Trnl2'
p1612
asS'gene_synonym'
p1613
(lp1614
S'mt-T2'
p1615
assbag1
(g99
g3
NtRp1616
(dp1617
g102
(lp1618
sg104
S''
sg105
g106
sg48
g1
(g50
g3
NtRp1619
(dp1620
g53
Nsg54
g1
(g55
g56
I13565
tRp1621
sg58
g1
(g55
g56
I11735
tRp1622
sg60
I1
sg61
Nsbsg111
S'gene'
p1623
sg113
(dp1624
S'note'
p1625
(lp1626
S'Nd5; NADH5'
p1627
asS'db_xref'
p1628
(lp1629
S'GeneID:26202'
p1630
aS'RGD:620560'
p1631
asS'gene'
p1632
(lp1633
S'ND5'
p1634
asS'nomenclature'
p1635
(lp1636
S'Official Symbol: mt-Nd5 | Name: NADH dehydrogenase 5, mitochondrial | Provided by: RGD:620560'
p1637
assbag1
(g99
g3
NtRp1638
(dp1639
g102
(lp1640
sg104
S''
sg105
g106
sg48
g1
(g50
g3
NtRp1641
(dp1642
g53
Nsg54
g1
(g55
g56
I13565
tRp1643
sg58
g1
(g55
g56
I11735
tRp1644
sg60
I1
sg61
Nsbsg111
S'CDS'
p1645
sg113
(dp1646
S'product'
p1647
(lp1648
S'NADH dehydrogenase subunit 5'
p1649
asS'codon_start'
p1650
(lp1651
S'1'
asS'transl_table'
p1652
(lp1653
S'2'
asS'db_xref'
p1654
(lp1655
S'GI:110189725'
p1656
aS'GeneID:26202'
p1657
aS'RGD:620560'
p1658
asS'translation'
p1659
(lp1660
S'MNMMTSSILMILILLTTPIIISMTNLPKLIDFPSYATSSIKFSFLLSLLPLLLFFHHNTEYMITNWHWLTINSIKLTMSFKIDYFSILFLSVALFVTWSIMQFSSWYMHSDPHINRFIKYLMMFLITMLILTSANNLFQLFIGWEGVGIMSFLLIGWWYGRADANTAALQAILYNRVGDIGFILAMTWFCLNMNSWELQQIFLTNTNNLVPLTGLLIAATGKSAQFGLHPWLPSAMEGPTPVSALLHSSTMVVAGIFLMIRFHPLTSNNSTIMTAMLCLGAITTLFTAICALTQNDIKKIVAFSTSSQLGLMMVTLGINQPYLAFLHICTHAFFKAMLFMCSGSIIHSLNDEQDIRKMGNMMKAMPFTSSCLIIGSLALTGMPFLTGFYSKDLIIEAINTCNTNAWALMITLIATSMTAVYSMRIIYFVTMTKPRYSPLITINENNPNLINPIKRLALGSILAGFLISLNIPPTNIQILTMPWHLKMTALLITILGFAIALELNNLTLNLSMSKPTKLSSFSTSLGYYPPIMHRIIPQKTLNSSYKLSLNLLDLIWLEKTIPKSTSITQTQLSKMMSNQKGLIKLYFLSFLITISLIFILHTLNPEWFQ'
p1661
asS'gene'
p1662
(lp1663
S'ND5'
p1664
asS'protein_id'
p1665
(lp1666
S'YP_665639.1'
p1667
assbag1
(g99
g3
NtRp1668
(dp1669
g102
(lp1670
sg104
S''
sg105
g106
sg48
g1
(g50
g3
NtRp1671
(dp1672
g53
Nsg54
g1
(g55
g56
I14061
tRp1673
sg58
g1
(g55
g56
I13542
tRp1674
sg60
I-1
sg61
Nsbsg111
S'gene'
p1675
sg113
(dp1676
S'note'
p1677
(lp1678
S'NADH6'
p1679
asS'db_xref'
p1680
(lp1681
S'GeneID:26203'
p1682
aS'RGD:620561'
p1683
asS'gene'
p1684
(lp1685
S'ND6'
p1686
asS'nomenclature'
p1687
(lp1688
S'Official Symbol: mt-Nd6 | Name: NADH dehydrogenase 6, mitochondrial | Provided by: RGD:620561'
p1689
assbag1
(g99
g3
NtRp1690
(dp1691
g102
(lp1692
sg104
S''
sg105
g106
sg48
g1
(g50
g3
NtRp1693
(dp1694
g53
Nsg54
g1
(g55
g56
I14061
tRp1695
sg58
g1
(g55
g56
I13542
tRp1696
sg60
I-1
sg61
Nsbsg111
S'CDS'
p1697
sg113
(dp1698
S'product'
p1699
(lp1700
S'NADH dehydrogenase subunit 6'
p1701
asS'codon_start'
p1702
(lp1703
S'1'
asS'transl_table'
p1704
(lp1705
S'2'
asS'db_xref'
p1706
(lp1707
S'GI:110189726'
p1708
aS'GeneID:26203'
p1709
aS'RGD:620561'
p1710
asS'translation'
p1711
(lp1712
S'MTNYMFILSLLFLTGCLGLALKPSPIYGGLGLIVSGCIGCLMVLGFGGSFLGLMVFLIYLGGMLVVFGYTTAMATEEYPETWGSNWFIFSFFVLGLFMELVVFYLFSLNNKVELVDFDSLGDWLMYEIDDVGVMLEGGIGVAAIYSCATWMMVVAGWSLFAGIFIIIEITRD'
p1713
asS'gene'
p1714
(lp1715
S'ND6'
p1716
asS'protein_id'
p1717
(lp1718
S'YP_665640.1'
p1719
assbag1
(g99
g3
NtRp1720
(dp1721
g102
(lp1722
sg104
S''
sg105
g106
sg48
g1
(g50
g3
NtRp1723
(dp1724
g53
Nsg54
g1
(g55
g56
I14130
tRp1725
sg58
g1
(g55
g56
I14061
tRp1726
sg60
I-1
sg61
Nsbsg111
S'gene'
p1727
sg113
(dp1728
S'db_xref'
p1729
(lp1730
S'GeneID:170619'
p1731
asS'gene'
p1732
(lp1733
S'Trne'
p1734
asS'gene_synonym'
p1735
(lp1736
S'mt-Te'
p1737
assbag1
(g99
g3
NtRp1738
(dp1739
g102
(lp1740
sg104
S''
sg105
g106
sg48
g1
(g50
g3
NtRp1741
(dp1742
g53
Nsg54
g1
(g55
g56
I14130
tRp1743
sg58
g1
(g55
g56
I14061
tRp1744
sg60
I-1
sg61
Nsbsg111
S'tRNA'
p1745
sg113
(dp1746
S'db_xref'
p1747
(lp1748
S'GeneID:170619'
p1749
asS'product'
p1750
(lp1751
S'tRNA-Glu'
p1752
asS'gene'
p1753
(lp1754
S'Trne'
p1755
asS'gene_synonym'
p1756
(lp1757
S'mt-Te'
p1758
assbag1
(g99
g3
NtRp1759
(dp1760
g102
(lp1761
sg104
S''
sg105
g106
sg48
g1
(g50
g3
NtRp1762
(dp1763
g53
Nsg54
g1
(g55
g56
I15278
tRp1764
sg58
g1
(g55
g56
I14135
tRp1765
sg60
I1
sg61
Nsbsg111
S'gene'
p1766
sg113
(dp1767
S'db_xref'
p1768
(lp1769
S'GeneID:26192'
p1770
aS'RGD:620081'
p1771
asS'gene'
p1772
(lp1773
S'CYTB'
p1774
asS'nomenclature'
p1775
(lp1776
S'Official Symbol: mt-Cytb | Name: cytochrome b, mitochondrial | Provided by: RGD:620081'
p1777
assbag1
(g99
g3
NtRp1778
(dp1779
g102
(lp1780
sg104
S''
sg105
g106
sg48
g1
(g50
g3
NtRp1781
(dp1782
g53
Nsg54
g1
(g55
g56
I15278
tRp1783
sg58
g1
(g55
g56
I14135
tRp1784
sg60
I1
sg61
Nsbsg111
S'CDS'
p1785
sg113
(dp1786
S'product'
p1787
(lp1788
S'cytochrome b'
p1789
asS'codon_start'
p1790
(lp1791
S'1'
asS'transl_table'
p1792
(lp1793
S'2'
asS'db_xref'
p1794
(lp1795
S'GI:110189727'
p1796
aS'GeneID:26192'
p1797
aS'RGD:620081'
p1798
asS'translation'
p1799
(lp1800
S'MTNIRKSHPLFKIINHSFIDLPAPSNISSWWNFGSLLGVCLMVQILTGLFLAMHYTSDTMTAFSSVTHICRDVNYGWLIRYLHANGASMFFICLFLHVGRGLYYGSYTFLETWNIGIILLFAVMATAFMGYVLPWGQMSFWGATVITNLLSAIPYIGTTLVEWIWGGFSVDKATLTRFFAFHFILPFIIAALAIVHLLFLHETGSNNPTGLNSDADKIPFHPYYTIKDLLGVFMLLLFLMTLVLFFPDLLGDPDNYTPANPLNTPPHIKPEWYFLFAYAILRSIPNKLGGVVALILSILILAFLPFLHTSKQRSLTFRPITQILYWILVANLLILTWIGGQPVEHPFIIIGQLASISYFSIILILMPISGIVEDKMLKWN'
p1801
asS'gene'
p1802
(lp1803
S'CYTB'
p1804
asS'protein_id'
p1805
(lp1806
S'YP_665641.1'
p1807
assbag1
(g99
g3
NtRp1808
(dp1809
g102
(lp1810
sg104
S''
sg105
g106
sg48
g1
(g50
g3
NtRp1811
(dp1812
g53
Nsg54
g1
(g55
g56
I15346
tRp1813
sg58
g1
(g55
g56
I15279
tRp1814
sg60
I1
sg61
Nsbsg111
S'gene'
p1815
sg113
(dp1816
S'db_xref'
p1817
(lp1818
S'GeneID:170620'
p1819
asS'gene'
p1820
(lp1821
S'Trnt'
p1822
asS'gene_synonym'
p1823
(lp1824
S'mt-Tt'
p1825
assbag1
(g99
g3
NtRp1826
(dp1827
g102
(lp1828
sg104
S''
sg105
g106
sg48
g1
(g50
g3
NtRp1829
(dp1830
g53
Nsg54
g1
(g55
g56
I15346
tRp1831
sg58
g1
(g55
g56
I15279
tRp1832
sg60
I1
sg61
Nsbsg111
S'tRNA'
p1833
sg113
(dp1834
S'db_xref'
p1835
(lp1836
S'GeneID:170620'
p1837
asS'product'
p1838
(lp1839
S'tRNA-Thr'
p1840
asS'gene'
p1841
(lp1842
S'Trnt'
p1843
asS'gene_synonym'
p1844
(lp1845
S'mt-Tt'
p1846
assbag1
(g99
g3
NtRp1847
(dp1848
g102
(lp1849
sg104
S''
sg105
g106
sg48
g1
(g50
g3
NtRp1850
(dp1851
g53
Nsg54
g1
(g55
g56
I15415
tRp1852
sg58
g1
(g55
g56
I15347
tRp1853
sg60
I-1
sg61
Nsbsg111
S'gene'
p1854
sg113
(dp1855
S'db_xref'
p1856
(lp1857
S'GeneID:170621'
p1858
asS'gene'
p1859
(lp1860
S'Trnp'
p1861
asS'gene_synonym'
p1862
(lp1863
S'mt-Tp'
p1864
assbag1
(g99
g3
NtRp1865
(dp1866
g102
(lp1867
sg104
S''
sg105
g106
sg48
g1
(g50
g3
NtRp1868
(dp1869
g53
Nsg54
g1
(g55
g56
I15415
tRp1870
sg58
g1
(g55
g56
I15347
tRp1871
sg60
I-1
sg61
Nsbsg111
S'tRNA'
p1872
sg113
(dp1873
S'db_xref'
p1874
(lp1875
S'GeneID:170621'
p1876
asS'product'
p1877
(lp1878
S'tRNA-Pro'
p1879
asS'gene'
p1880
(lp1881
S'Trnp'
p1882
asS'gene_synonym'
p1883
(lp1884
S'mt-Tp'
p1885
assbag1
(g99
g3
NtRp1886
(dp1887
g102
(lp1888
sg104
S''
sg105
g106
sg48
g1
(g50
g3
NtRp1889
(dp1890
g53
Nsg54
g1
(g55
g56
I16313
tRp1891
sg58
g1
(g55
g56
I15415
tRp1892
sg60
I1
sg61
Nsbsg111
S'D-loop'
p1893
sg113
(dp1894
sbag1
(g99
g3
NtRp1895
(dp1896
g102
(lp1897
sg104
S''
sg105
g106
sg48
g1
(g50
g3
NtRp1898
(dp1899
g53
Nsg54
g1
(g55
g56
I16132
tRp1900
sg58
g1
(g55
g56
I15777
tRp1901
sg60
I1
sg61
Nsbsg111
S'STS'
p1902
sg113
(dp1903
S'db_xref'
p1904
(lp1905
S'UniSTS:270889'
p1906
asS'standard_name'
p1907
(lp1908
S'PMC139749P2'
p1909
assbasS'_seq'
p1910
g1
(cBio.Seq
Seq
p1911
g3
NtRp1912
(dp1913
S'alphabet'
p1914
g1
(cBio.Alphabet.IUPAC
IUPACAmbiguousDNA
p1915
g3
NtRp1916
sS'_data'
p1917
S'GTTAATGTAGCTTATAATAAAGCAAAGCACTGAAAATGCTTAGATGGATTCAAAAATCCCATAAACACAAAGGTTTGGTCCTGGCCTTATAATTAATTGGAGGTAAGATTACACATGCAAACATCCATAAACCGGTGTAAAATCCCTTAAACATTTGCCTAAAACTTAAGGAGAGGGCATCAAGCACATAATATAGCTCAAGACGCCTTGCCTAGCCACACCCCCACGGGACTCAGCAGTGATAAATATTAAGCAATGAACGAAAGTTTGACTAAGCTATACCTCTCAGGGTTGGTAAATTTCGTGCCAGCCACCGCGGTCATACGATTAACCCAAACTAATTATTTTCGGCGTAAAACGTGCCAACTATAAATCTCATAATAGAATTAAAATCCAACTTATATGTGAAAATTCATTGTTAGGACCTAAGCCCAATAACGAAAGTAATTCTAATCATTTATATAATGCACGATAGCTAAGACCCAAACTGGGATTAGATACCCCACTATGCTTAGCCCTAAACCTTAATAATTAAACCTACAAAATTATTTGCCAGAGAACTACTAGCTACAGCTTAAAACTCAAAGGACTTGGCGGTACTTTATATCCATCTAGAGGAGCCTGTTCTATAATCGATAAACCCCGTTATACCTTACCCCTTCTCGCTAATTCAGCCTATATACCGCCATCTTCAGCAAACCCTAAAAAGGCACTAAAGTAAGCACAAGAACAAACATAAAAACGTTAGGTCAAGGTGTAGCCAATGAAGCGGAAAGAAATGGGCTACATTTTCTTTTCCCAGAGAACATTACGAAACCCTTTATGAAACTAAAGGACAAAGGAGGATTTAGTAGTAAATTAAGAATAGAGAGCTTAATTGAATAGAGCAATGAAGTACGCACACACCGCCCGTCACCCTCCTCAAATTAGATTGGCATTCATATATACATAATTTCACTAACAAATTTATGAGAGGAGATAAGTCGTAACAAGGTAAGCATACTGGAAAGTGTGCTTGGAATAATCACAGTGTAGCTTAATCACAAAGCATCTGGCCTACACCCAGAAGAATTCATAAAAATGAACACTTTGAACTAATCCTAGCCCTACAACCAACCAACATAACTAAACCCCCCACATAAACTAAAACATTTAACTCAAAAAGTATTGGAGAAAGAAATTTACTTACCAGGAGCTATAGAGAAAGTACCGCAAGGGAATGGTGAAAGACTAATTTAAAGTAAAAATAAGCAAAGATTAAACCTTGTACCTTTTGCATAATGAATTAACTAGAAAATCCTTAACAAAAAGAATTTAAGCTAAGAACCCCGAAACCAAACGAGCTACCTAAAAACAATTTCATGAATCAACCCGTCTATGTAGCAAAATAGTGGGAAGATTTTTAGGTAGAGGTGAAAAGCCTATCGAGCTTGGTGATAGCTGGTTGCCCAAAAAAGAATTTCAGTTCAACTTTAAGCTTACCATCAGAACAACAAATCAAAATGTAAACTTAAAATATAGCCAAAAGAGGGACAGCTCTTTAGGAAAAGGAAAAAACCTTAAATAGTGAATAAACAACTACAATCACTTAACCATTGTAGGCTTAAAAGCAGCCATCAATAAAGAAAGCGTTCAAGCTCAACATACATACTTACACACACTAATTCCACAAACCTCAATAAATTCCTATATCACAAATTGGGCTAATCTATAGATCCATAGATGAAATACTGTTAATATGAGTAACAAGAACCAATTCTCCTAGCACAAGTGTATGACAACCCGGATAACCATTGTCAATTATCGAATCATAGGTACTAACCCAACAATAAAATTACCTATCCCTAACTCGTTAGCCCAACACAGGCGTGCTTTAAGGAAAGATTAAAAAAAGTAAAAGGAACTCGGCAAACACGAGCCCCGCCTGTTTACCAAAAACATCACCTCTAGCATAACAAGTATTAGAGGCATTGCCTGCCCAGTGACTAAAGTTAAACGGCCGCGGTATCCTGACCGTGCAAAGGTAGCATAATCACTTGTTCCTTAATTAGGGACTAGAATGAATGGCTAAACGAGGGTTCAACTGTCTCTTACTTTCAATCAGTGAAATTGACCTTCCAGTGAAGAGGCTGGAATCTCCCAATAAGACGAGAAGACCCTATGGAGCTTCAATTTACTAGTTCAACTTATATAAAAACAACCTAATGGGCTAAAACAAAATAAATATGAACTAAAAAATTTCGGTTGGGGTGACCTCGGAGAATAAAAAATCCTCCGAATGATTTTAACCTAGACTCACAAGTCAAAGTAATACTAATATCTTATTGACCCAATTATTGATCAACGGACCAAGTTACCCTAGGGATAACAGCGCAATCCTATTTAAGAGTTCATATCGACAATTAGGGTTTACGACCTCGATGTTGGATCAGGACATCCCAATGGTGCAGAAGCTATTAATGGTTCGTTTGTTCAACGATTAAAGTCCTACGTGATCTGAGTTCAGACCGGAGCAATCCAGGTCGGTTTCTATCTATTTACAATTTCTCCCAGTACGAAAGGACAAGAGAAATGGAGCCTCCTTACCATAAGTGCTCCCAACCAATTTATGAAAAAAATCTCAATAAAGTATATATGTACAATAAATTAAACCTAGCCCAGGTTATTAGGGTGGCAGAGCCAGGTAATTGCGTAAGACTTAAAACCTTGTTCCCAGAGGTTCAAATCCTCTCCCTAATAGTGTACTTTATTAATATCCTAACACTCCTAATCCCAATCTTAATTGCCATGGCCTTCCTCACCCTAGTAGAACGGAAAATCCTAGGCTACATACAACTACGCAAAGGCCCCAACATCGTAGGCCCATATGGTATTCTACAACCATTTGCAGATGCCATAAAACTATTCATAAAAGAACCCATACGCCCCCTAACCACCTCAATATCACTATTTATTATCGCCCCAACCCTCTCCCTTACACTAGCTCTAAGCCTATGAATCCCCTTACCAATACCTCACCCCCTTATCAACCTCAACCTAGGCATACTATTTATTCTAGCCACATCAAGTCTTTCAGTCTACTCCATTCTATGATCAGGATGAGCATCAAATTCAAAATACTCCCTATTCGGAGCCCTACGAGCCGTTGCCCAAACCATCTCTTACGAAGTCACAATAGCCATTATCCTCTTATCCGTCCTCCTAATAAGCGGCTCCTTCTCCCTACAAATACTTATCACTACACAAGAACATATCTGACTATTAATCCCCGCCTGACCAATAGCCATAATATGATACATTTCAACCCTAGCAGAAACAAATCGAGCTCCCTTCGACTTAACAGAAGGAGAATCAGAATTAGTCTCAGGCTTTAACGTCGAATACGCCGCAGGACCATTCGCCCTATTCTTCATAGCCGAGTACACCAATATTATCCTAATAAACGCCCTAACATCAATTGTATTCCTAGGCCCCTTATATCACATCAATTACCCTGAATTATACTCAACCAGCTTCATAACAGAAACACTACTTCTATCCACAACTTTCCTATGAATCCGAGCATCCTACCCCCGTTTTCGATATGACCAACTAATGCACCTCCTATGAAAAAATTTCCTCCCACTAACACTAGCATTCTGCATATGATACATTTCCCTGCCAATTTTCCTAGCAGGAATTCCACCCTACACATAGAAATATGTCTGACAAAAGAGTTACTTTGATAGAGTAAATAATAGAGGTTTAAATCCTCTTATTTCTAGGACAATAGGAATTGAACCTACACCTAAGAATTCAAAATTCTCCGTGCTACCAATACACCCTATCCTACATAGTAAGGTCAGCTAACTAAGCTATCGGGCCCATACCCCGAAAATGTTGGTCTAAACCCTTCCCGTACTAATAAACCCAATCACCCTAATCATTATTTACTTTACTATCCTCATAGGGCCTGTAATCACTATATCTAGCTCCAACTTACTCCTAATATGAGTAGGATTGGAAATAAGCCTTTTAGCTATCATCCCACTTCTAGCCAACAAAAAAAGCCCACGATCAACTGAAGCAGCAACAAAATATTTTCTAACCCAAGCTACAGCCTCAATAATTATCCTACTAGTCATCATCCTCAACTACAAACAATCAGGAATATGAACCCTCCAACAACAAACCAATAACATACTACTCAACATAATACTCATTTCACTAGCCATAAAACTTGGACTAGCCCCCTTCCACTACTGACTACCCGAAGTCACCCAAGGAATTCCCCTACACATTGGATTAATCTTACTAACATGACAAAAAATTGCTCCACTATCAATTCTATACCAATTTTATCAACTCCTAAACCCAACTATCACCACCATTCTCGCAATTTCATCAGTCTTTGTTGGCGCCTGAGGAGGACTTAACCAGACCCAAACACGAAAAATCATAGCATATTCATCAATTGCCCACATAGGATGAATAACAGCAATCCTTCCATACAACCCTAACTTAACCCTCCTAAACTTAACAATTTACATCCTACTTACTGTTCCAATATTCATCACACTCATAACAAACTCAGCAACAACAATCAACACACTCTCACTCGCATGAAATAAAACTCCCATAATCCTAACCATAACATCCATCATCCTCCTATCACTAGGAGGACTCCCCCCTCTCACAGGATTTTTACCAAAATGAGCAATTATCTCCGAGCTTCTAAAAAACAACTGCTCAACCCTATCAACACTAATAGCTATCATAGCCCTATTAAGCCTATTCTTCTATACACGACTAATTTACTCTATATCCCTCACCATATTCCCAACCAACAACAACTCCAAAATAATCTCCCACCACCACCAAAACCCAAAACATAATTTTATCCTCCCAACCCTCACAGTATTAAGTACCCTTACCCTACCGCTTTCCTCCCAACTAATCACATAGAAGTTTAGGATATACAGTCCAAGAGCCTTCAAAGCCCTTAGAAAACAAACAAGTTTAACTTCTGATAAGGACTGTAAGACTATATCTTACATCTGTTAAATGCAAATCAACTGCTTTAATTAAGCTAAATCCTCAACTAGATTGGAAGGATTCAAACCTACGAAAATTTAGTTAACAGCTAAATACCCTACTTACTGGCTTCAATCTACTTCTCCCGCCTATCAGAAAAAGAGGCGGGAGAAGCCTTAGTAGAGGAGATTCTCTACACCTTCGAATTTGCAATTCGACATGATAATCACCTTAAGGCTTTTTGGTAAAAAGGGGGCTCAACCCCTGTCTTTAGATTTACAGTCTAATGCTTACTCAGCCATTTTACCTATGCTCGTAAACCGTTGACTCTTTTCAACTAACCACAAAGATATCGGAACCCTCTACCTATTATTTGGAGCCTGAGCAGGAATAGTAGGGACAGCTTTAAGTATTCTAATTCGAGCTGAACTAGGACAGCCAGGCGCACTCCTAGGAGATGACCAAATCTATAATGTCATCGTCACAGCCCATGCATTCGTAATAATTTTCTTTATAGTAATACCTATAATAATTGGAGGCTTCGGGAACTGACTTGTACCACTAATAATTGGAGCCCCTGATATAGCATTCCCACGAATAAATAACATAAGCTTTTGACTGCTTCCTCCATCATTTCTACTCCTTTTAGCATCCTCCATAGTAGAAGCTGGAGCTGGAACAGGATGAACAGTATATCCCCCCTTAGCCGGAAACCTAGCCCATGCTGGAGCATCCGTAGATTTAACTATTTTTTCCCTCCACCTAGCCGGGGTGTCTTCTATCTTAGGAGCTATCAACTTTATCACCACTATCATTAATATAAAACCCCCTGCTATAACCCAATATCAGACACCTCTCTTTGTATGATCCGTACTAATTACAGCCGTCCTACTACTTCTCTCACTGCCAGTATTAGCAGCAGGTATCACTATACTCCTTACAGACCGAAATCTAAATACTACTTTCTTCGACCCCGCTGGAGGTGGAGACCCAATCCTTTATCAACACCTATTCTGATTCTTCGGCCACCCAGAAGTGTACATCTTAATTCTTCCAGGGTTTGGAATTATTTCACATGTAGTTACCTATTACTCTGGAAAAAAAGAACCCTTCGGATATATAGGTATGGTATGAGCCATAATATCTATTGGCTTCCTAGGATTTATTGTATGAGCACATCACATATTCACAGTAGGCCTAGATGTAGACACCCGAGCCTACTTTACATCTGCCACTATAATTATCGCAATTCCTACAGGCGTAAAAGTATTCAGCTGACTCGCTACACTACATGGAGGAAATATCAAATGATCCCCCGCCATATTATGAGCCTTAGGGTTTATCTTCTTATTCACAGTAGGGGGCCTAACAGGGATCGTACTATCTAACTCATCCCTTGACATTGTACTTCATGATACATACTATGTAGTAGCTCACTTCCACTATGTCTTATCTATAGGAGCAGTATTCGCCATCATAGCTGGCTTCGTCCACTGATTCCCACTATTCTCAGGCTATACCCTAAATGACACATGAGCAAAAGCCCACTTTGCCATTATATTTGTAGGTGTAAACATAACATTCTTTCCTCAACACTTCCTAGGATTAGCAGGGATACCTCGTCGTTACTCTGATTATCCAGATGCTTACACCACATGAAATACAGTCTCCTCTATAGGCTCATTCATCTCACTTACGGCCGTCCTTGTAATGATCTTCATGATTTGAGAAGCCTTCGCATCAAAACGAGAAGTACTCTCAATTTCCTACTCCTCAACTAACCTAGAATGACTGCATGGATGCCCCCCACCCTACCACACATTCGAAGAACCTTCCTATGTAAAAGTTAAATAAGAAAGGAAGGATTCGAACCCCCTACAACTGGTTTCAAGCCAATTTCATAACCATTATGTCTTTCTCAATGAGATATTAGTAAAATAATTACATAACCTTGTCAAGGTTAAGTTATAGACTTAAATCTATATATCTTACATGGCTTACCCATTTCAACTTGGCTTACAAGACGCCACATCACCTATCATAGAAGAACTTACAAACTTTCATGACCACACCCTAATAATTGTATTCCTCATCAGCTCCCTAGTACTTTATATTATTTCACTAATACTAACAACAAAACTAACACACACAAGCACAATAGACGCCCAAGAAGTAGAAACAATTTGAACAATTCTCCCAGCTGTCATTCTTATTCTAATTGCCCTTCCCTCCCTACGAATTCTATACATAATAGACGAGATTAATAACCCAGTTCTAACAGTAAAGACTATAGGACACCAATGATACTGAAGCTATGAATATACTGACTATGAAGACCTATGCTTTGACTCCTACATAATCCCAACCAATGACCTAAAACCAGGTGAACTTCGTCTATTAGAAGTTGATAATCGGGTAGTCTTACCAATAGAACTTCCAATCCGTATACTAATCTCATCCGAAGACGTCCTGCACTCATGAGCCGTCCCTTCACTAGGGTTAAAAACCGACGCAATCCCCGGCCGCCTAAACCAAGCTACAGTGACATCAAACCGACCAGGTCTATTCTATGGCCAATGCTCTGAAATTTGCGGCTCAAATCACAGCTTCATACCCATTGTACTAGAAATAGTCCCTCTAAAATATTTCGAAAACTGATCAGCTTCTATAATTTAAACTCATTGCGAAGCTTAGAGCGTTAACCTTTTAAGTTAAAGTTAGAGACAACAAATCTCCACAATGACATGCCACAACTAGACACATCCACATGATTTATTACAATCATCTCCTCAATAGCCACACTATTTATTTTATTTCAATTAAAAATTTCTTCCCAAACCTTTCCTGCACCTCCCTCCCCCAAAACTATAGCCACAGAAAAAACGAATAACCCTTGAGAATCAAAATGAACGAAAACCTATTTGCCTCTTTCATTACCCCCACAATAATAGGTCTACCAATTGTTGTAACCATTATTATGTTCCCATCAATTCTATTCCCATCATCAGAACGCCTAATCAGCAACCGACTACACTCATTTCAACACTGACTAATCAAACTTATCATCAAACAAATAATGTTAATCCACACACCAAAAGGACGAACCTGAGCCCTAATAATTGTATCCCTAATTATATTTATTGGCTCAACCAACCTTCTAGGGCTTCTTCCCCATACATTTACCCCTACCACTCAGCTATCTATAAACCTAAGCATAGCCATCCCCCTATGAGCAGGAGCCGTAATTCTAGGCTTCCGACACAAACTAAAAAATTCTTTAGCCCACTTCTTACCGCAAGGAACCCCCATCTCCCTAATTCCCATACTAATTATCATCGAAACTATCAGCCTATTTATTCAACCGATAGCACTAGCAGTACGACTAACAGCAAACATTACAGCAGGCCATCTATTAATGCATCTAATCGGAGGAGCTACTCTAGTACTTATAGACATCAGCCCACCAACCGCTACAATTACATTTATTATTCTACTTCTACTTACAGTACTTGAATTTGCCGTAGCCTTAATTCAAGCCTATGTATTCACCCTTCTAGTAAGCCTGTACCTACATGATAACACATAATGACCCACCAAACCCATGCATACCATATAGTAAACCCAAGCCCATGACCACTAACAGGAGCCCTATCAGCTCTTCTACTTACATCCGGCTTAGTAATATGATTCCATTACAACTCCACAATTCTCCTATCATTAGGCCTCCTGACAAACATCCTAACTATATATCAATGATGACGAGATATCATCCGTGAAGGAACATACCAAGGCCACCACACCCCTATTGTACAAAAAGGCCTCCGATACGGAATAATCCTGTTTATTGTCTCCGAAGTATTCTTCTTTGCCGGATTTTTCTGAGCATTTTATCATTCCAGCCTAGTTCCTACCCACGACCTAGGCGGTTGCTGACCCCCAACAGGAATTACCCCTTTAAATCCCCTAGAAGTACCCCTTCTAAATACATCAGTCCTCTTAGCATCAGGAGTCTCAATTACATGAGCCCATCACAGCCTAATAGAAGGCAACCGAAACCATATAAACCAAGCCCTACTAATCACCATTCTCTTAGGATTATATTTCACTATCTTACAAGCCTCAGAGTATTTCGAAACATCATTTTCTATCTCAGACGGAATTTACGGCTCAACATTCTTCATAGCAACGGGATTTCATGGCCTCCACGTAATTATTGGCTCAACTTTCCTAATTGTCTGTCTACTACGACAACTAAAATTCCACTTCACATCAAAACATCATTTCGGATTTGAAGCCGCAGCATGATACTGACACTTCGTAGATGTAGTTTGACTATTCCTATACGTTTCTATCTATTGATGAGGATCCTACTCCCTTAGTATAAACAATACAACTGACTTCCAATCAGTTAATTCTGAAAAAACTCAGAAGAGAGTAATTAACCTACTTATTATCATCACAATTAACATCACCTTATCTTTTATCCTCATTTCAATTGCATTCTGATTGCCTCAAATAAACTTATACTCCGAAAAAGCAAACCCATATGAATGTGGCTTCGACCCAACAAGTTCTGCACGCCTTCCTTTTTCAATAAAATTTTTCTTAGTAGCCATTACATTTCTACTATTCGACCTAGAAATCGCCTTACTACTCCCCCTCCCATGAGCGATTCAAACAACCAATACTACTACAATAATAGCAACTGCCTTTATTCTAGTCACTATTTTAGCTCTTGGCCTAAGCTACGAATGAACACAAAAAGGACTAGAATGAACAGAATAATTGGTAATTAGTTTAAATAAAATTAATGATTTCGACTCATTAGATTATGATAATAATCATAATTACCAACAATGACATCTGCTTTCCTAAATTTAACTATAGCCTTTACATTATCTCTACTAGGTACTTTTATATTTCGCTCCCACTTAATATCTACTCTCCTCTGCCTAGAAGGAATAATACTATCACTATTTGTCATAACTTCAACATCCACATTAAACTCCAACTCCATAATCTCCATAACCATCCCAATTACCATTCTAGTTTTTGCAGCCTGCGAAGCAGCAGTAGGTTTAGCCTTACTAGTAAAAATTTCAAATACTTACGGAACAGACTACGTACAAAACCTCAACCTTCTACAATGTTAAAAATTATTTTCCCATCTATCATACTCCTCCCACTAACATGACTCTCAGCCAACAAAAAAATCTGAACCAATGTCACCTCCTACAGCTTTCTAGTGAGCCTATTAAGCTTATCACTCCTATGACAAAATGACGAAAATTACCTAAATTTCTCAGTTATATTCTCCTCCGATCCATTATCCACCCCACTAATCATTCTAACAACTTGACTCCTCCCACTAATAATGCTCGCTAGCCAAAATCACATAAAAAAAGAAAATATAATGCATCAAAAACTTTACATCTCAATACTTATTAGCCTCCAAATTTTACTCATCATAACATTCTCCGCAACAGAACTAATTTTATTTTATATCCTGTTCGAAGCCACTCTAATCCCAACACTAATTATCATTACACGATGAGGCAACCAAACAGAACGCTTAAATGCAGGAATTTATTTCCTATTTTATACACTAATTGGCTCCATCCCACTCTTAATTGCCCTCATTTCAATCCAAAACTCAATAGGAACACTCAACTTCCTAATCCTCTCCCTCACAACACACCCCCTACCCTCAACATGATCCAACACCATTCTATGACTAGCATGTATAATAGCATTTATAATCAAAATACCATTATACGGAGTCCATCTATGATTACCAAAAGCCCACGTAGAAGCTCCAATTGCAGGCTCTATAATTTTAGCAGCAATTCTCCTAAAGCTAGGGGGTTATGGGATAATACGAGTTTCCATCATTCTAGACCCCCTAACAAAATCTTTAGCCTACCCATTCATCATCCTCTCATTATGAGGCATAATTATAACTAGCTCAATCTGCCTACGCCAAACAGATCTAAAATCATTAATTGCTTACTCATCAGTAAGCCATATAGCCCTAGTCATCACAGCCATTATAATCCAGACACCATGAAGCTTCATGGGAGCTACAATACTAATAATCGCCCACGGCTTAACCTCCTCACTCTTATTCTGCCTAGCAAACACCAACTACGAACGAATTCACAGCCGAACTATAATTATAGCTCGAGGATTACAAATAATCTTTCCATTGATAGCAACATGATGACTATTAGCAAGCTTAGCCAACCTAGCACTACCACCCCTAATTAACCTCATAGGCGAGTTATTCATTGTTATAGCAACATTTTCCTGATCGAACCCCTCTATCATCCTTATAGCAACTAACATTGTCATCACAGGAATCTACTCAATATATATAATTATCACAACCCAACGAGGAAAACTAACCAGCCACATAAACAACCTCCAACCTTCCCACACACGAGAATTAACACTCATAGCTCTACACATTATTCCCCTCATACTATTAACAATCAACCCTAAACTCATCACAGGCCTAACAATATGTAGGTATAGTTTACAAAAAACATTAGACTGTGAATCTAACAACAGGAAATCAAATTCCTTATTTACCAAGAAAGTATGCAAGAACTGCTAATTCATGCACCCATACCTAAAACATATGGCTTTCTTACTTTTATAGGATAGAAGTAATCCATTGGTCTTAGGAACCAAAAACCTTGGTGCAACTCCAAATAAAAGTAATAAATATAATAACATCCTCAATCCTCATAATCTTGATTTTACTTACAACACCAATCATCATTTCCATAACCAACCTACCAAAACTTATTGACTTTCCGTCATATGCTACTTCATCAATTAAATTCTCATTCCTCCTTAGCCTCTTACCTTTACTACTATTCTTCCACCACAACACAGAATATATAATTACTAACTGACATTGACTAACTATTAATTCTATTAAACTTACTATAAGTTTCAAAATTGACTATTTCTCAATCCTATTCCTATCAGTAGCCCTATTCGTAACATGATCAATCATACAATTCTCTTCATGATATATACACTCTGATCCCCACATTAACCGATTCATTAAGTACTTAATAATATTCCTAATTACTATACTAATTCTAACCTCAGCTAACAATCTATTCCAACTCTTTATTGGATGAGAAGGAGTAGGAATTATATCCTTCTTATTAATCGGATGATGATATGGCCGTGCAGACGCCAACACAGCGGCCCTCCAAGCAATCCTCTACAACCGAGTCGGAGACATTGGTTTCATCCTAGCTATAACCTGATTCTGCCTAAACATAAACTCCTGAGAACTCCAACAAATTTTCTTAACCAATACCAACAATCTAGTCCCTCTCACAGGACTACTAATTGCAGCCACAGGAAAATCCGCCCAATTCGGACTTCATCCATGACTCCCATCAGCTATAGAAGGCCCAACTCCCGTCTCTGCCCTACTACACTCAAGCACAATAGTTGTGGCAGGGATCTTCCTAATAATCCGATTCCACCCCCTAACCTCAAACAATAGTACTATTATAACAGCCATACTATGTCTTGGTGCAATCACCACATTATTCACAGCAATCTGTGCTCTCACCCAAAACGACATCAAAAAAATTGTAGCTTTCTCAACATCCAGCCAACTAGGCCTTATAATAGTCACATTAGGGATTAACCAACCCTACCTTGCTTTCCTCCACATTTGCACCCATGCATTCTTCAAAGCCATATTATTCATATGCTCCGGATCAATCATCCATAGCCTCAACGATGAACAAGACATTCGAAAAATAGGCAATATAATAAAAGCAATACCATTCACATCATCTTGTCTCATTATCGGGAGCCTAGCCCTTACCGGAATACCTTTCCTCACAGGATTCTATTCAAAAGATCTCATCATCGAAGCCATCAACACGTGTAACACCAACGCCTGAGCCCTAATAATCACTTTAATCGCCACATCCATAACTGCTGTGTACAGTATACGCATCATCTACTTCGTCACCATGACAAAACCACGATACTCCCCACTAATTACTATTAATGAAAACAACCCAAACCTCATTAATCCAATCAAACGCCTAGCATTAGGAAGCATCCTAGCAGGCTTCCTTATCTCACTAAATATTCCTCCAACTAACATTCAAATTCTCACAATACCCTGACATTTAAAAATAACAGCCCTACTCATTACAATCCTAGGATTTGCCATTGCCCTAGAACTTAACAATTTAACACTAAATCTATCAATAAGCAAACCCACCAAACTATCATCATTCTCAACCTCCCTAGGCTACTACCCACCAATTATACACCGAATTATTCCTCAAAAAACTCTAAATTCTAGCTACAAATTATCCTTAAACCTACTAGACCTAATCTGACTAGAAAAGACAATCCCAAAATCAACCTCAATCACCCAAACCCAACTATCTAAAATAATATCCAACCAAAAAGGGCTAATCAAACTATATTTCCTATCATTTCTCATCACTATTTCACTAATTTTTATCTTACACACACTTAATCCCGAGTGATTTCAATAATAATAAAAATCCCCGCAAACAATGACCACCCAGCCACCACTATCATTCAAGTAGCACAACTATAAATAGCCGCAACCCCAATCCCCCCCTCCAACATAACCCCAACATCATCAATCTCATACATTAATCAATCGCCTAGACTATCAAAATCAACTAACTCCACCTTATTATTCAAACTAAACAAGTAGAACACTACCAACTCCATAAAAAGCCCTAAAACAAAAAAACTAAAAATAAACCAATTAGACCCTCAAGTCTCCGGGTACTCCTCAGTAGCCATAGCAGTTGTATACCCAAATACAACCAACATCCCCCCCAAATAAATTAAAAATACTATTAAACCTAAAAACGAACCCCCAAACCCTAAAACTATTAAGCACCCAATACATCCACTAACAATCAATCCAAGCCCACCATAAATAGGTGAAGGCTTCAACGCCAACCCTAGACAACCAGTCAAAAACAGTAAACTTAAAATAAACATATAATTTGTCATTATTTCTACACAGCATTTAACTGTGACTAATGACATGAAAAATCATCGTTGTAATTCAACTATAGAAACATCTAATGACAAACATCCGAAAATCTCACCCCCTATTCAAAATCATCAACCACTCCTTTATCGACCTCCCCGCCCCATCTAACATCTCATCATGATGAAACTTCGGTTCTCTACTAGGAGTATGCCTCATAGTACAAATCCTCACAGGCTTATTCCTAGCAATACACTACACGTCTGATACCATAACAGCATTTTCATCAGTCACCCACATCTGCCGAGACGTAAACTACGGCTGACTAATCCGATACCTACACGCCAACGGCGCCTCAATATTTTTCATCTGCCTATTCCTCCATGTGGGACGAGGACTATACTATGGATCCTACACTTTCCTAGAAACCTGAAACATTGGGATCATTCTACTATTTGCAGTCATAGCAACTGCATTCATGGGCTATGTACTCCCATGAGGACAAATATCATTCTGAGGAGCTACAGTAATTACAAACCTATTATCTGCTATCCCTTACATTGGGACTACCCTAGTCGAATGAATCTGAGGAGGCTTCTCAGTAGACAAAGCAACCCTAACACGCTTCTTCGCATTCCACTTCATCCTCCCATTCATTATCGCCGCCCTTGCAATTGTACATCTTCTTTTCCTCCACGAAACAGGATCAAATAACCCCACAGGATTAAACTCCGACGCAGACAAAATCCCATTCCATCCATATTATACAATTAAAGACCTCCTAGGTGTATTTATATTACTATTATTCCTAATAACCCTAGTACTATTCTTCCCAGACCTACTAGGAGACCCAGACAATTATACACCCGCTAACCCCCTCAACACCCCACCCCACATCAAACCAGAATGATATTTTCTCTTTGCCTACGCTATTCTACGCTCCATTCCCAACAAACTAGGAGGAGTCGTAGCCCTAATCTTATCAATCCTAATCTTAGCCTTCCTACCATTCCTGCATACTTCAAAACAACGCAGCTTAACATTCCGCCCAATCACCCAAATCCTTTACTGAATCCTAGTAGCCAACCTCCTAATCTTAACATGAATCGGAGGCCAACCAGTAGAACACCCATTTATCATTATTGGCCAACTAGCCTCCATCAGCTACTTTTCAATTATCCTCATTCTCATACCAATCTCTGGAATTGTTGAAGACAAAATGTTAAAATGAAATTAATGTCCCGATAGTATAAAAATTACTCTGGTCTTGTAAACCAAAAATGAAGAGTCAATCTTCTCAGGACAATCAAGAAGAAGGAACTACCTCCCCACCATCAACACCCAAAGCTGATATTCTATTTAAACTACTTCTTGTCAGTACATAAAATGATATAGGACATTAAAACATTTATGTATATCGTACATTAAATTATTTTCCCCAAGCATATAAGCATGTAATATATATTTAATGATTTAGGACATACATTTAAACTCAACTATAAATTCATAACAACATGTCTATTCTCGAATACATTAAAATAATGCTTATTAGACATATCTGTGTTATTAGACATGCACCATTAAGTCATAAACCTTTCTCTTCCATATGACTATCCCTGTCCCCAATTGGTCTCTATTTCTACCATCCTCCGTGAAATCAACAACCCGCCCACTCGTCCCCCTCTTCTCGCTCCGGGCCCATTCGTCCTGGGGGTGACTATACTGAAACTTTACCAGGCATCTGGTTCTTACTTCAGGGCCATCAATTGGTTTATCGTCCATACGTTCCCCTTAAATAAGACATCTCGATGGTAACGGGTCTAATCAGCCCATGATCAACATAACTGTGGTGATATACATTTGGTATTTTTTAATTTTCGGATGCCTTCCTCAACATAGCCGTCAAGGCATGAAGGTCAGCACAAAGTCCTGTGGAACCTTTTAGTTAAGGGTCATTTATCCTCATAGACAAAGCTCGAAAGACTATTTTATTCATGTTTGTAAGACATAAATATTTATAAATACTGAAAAATCTGTCAACAAACCCCCCCACCCCCTACACCTGAAACTTCAATGCCAAACCCCAAAAACATTAAAGCAAGAATTAAATAAAACAAAAAGCTACTTAATTCTTAAAAGGCTTCTCCATTCTAGTAGACCACAAAATTTTAACTTAAATCTTAGCATTGGTAAAATTTCCCGACACAAAATCTTTCCTTCTAACTAAACCCTCTTTACTTGCCTACCCTCAGAAAATTCCACATACACCAAA'
p1918
sbsS'_per_letter_annotations'
p1919
g1
(cBio.SeqRecord
_RestrictedDict
p1920
c__builtin__
dict
p1921
(dtRp1922
(dp1923
S'_length'
p1924
I16313
sbsg105
S'NC_001665.2'
p1925
sS'name'
p1926
S'NC_001665'
p1927
sb.