ccopy_reg
_reconstructor
p1
(cBio.SeqRecord
SeqRecord
p2
c__builtin__
object
p3
NtRp4
(dp5
S'dbxrefs'
p6
(lp7
S'Project:60333 BioProject:PRJNA60333'
p8
asS'description'
p9
S'Sus scrofa taiwanensis mitochondrion, complete genome.'
p10
sS'annotations'
p11
(dp12
S'comment'
p13
S'REVIEWED REFSEQ: This record has been curated by NCBI staff. The\nreference sequence is identical to GU147934.\nCOMPLETENESS: full length.'
p14
sS'sequence_version'
p15
I1
sS'source'
p16
S'mitochondrion Sus scrofa taiwanensis (Taiwan pig)'
p17
sS'taxonomy'
p18
(lp19
S'Eukaryota'
p20
aS'Metazoa'
p21
aS'Chordata'
p22
aS'Craniata'
p23
aS'Vertebrata'
p24
aS'Euteleostomi'
p25
aS'Mammalia'
p26
aS'Eutheria'
p27
aS'Laurasiatheria'
p28
aS'Cetartiodactyla'
p29
aS'Suina'
p30
aS'Suidae'
p31
aS'Sus'
p32
asS'keywords'
p33
(lp34
S''
asS'references'
p35
(lp36
g1
(cBio.SeqFeature
Reference
p37
g3
NtRp38
(dp39
g13
S''
sS'title'
p40
S'Intra-population genetic structure of Lan-Yu pig (Sus scrofa) by analysis of mitochondrial genomic sequences'
p41
sS'consrtm'
p42
S''
sS'journal'
p43
S'Unpublished'
p44
sS'location'
p45
(lp46
g1
(cBio.SeqFeature
FeatureLocation
p47
g3
NtRp48
(dp49
S'ref'
p50
NsS'_end'
p51
g1
(cBio.SeqFeature
ExactPosition
p52
c__builtin__
int
p53
I16480
tRp54
sS'_start'
p55
g1
(g52
g53
I0
tRp56
sS'_strand'
p57
NsS'ref_db'
p58
NsbasS'pubmed_id'
p59
S''
sS'authors'
p60
S'Ju,Y.T., Wu,C.Y. and Jiang,Y.N.'
p61
sS'medline_id'
p62
S''
sbag1
(g37
g3
NtRp63
(dp64
g13
S''
sg40
S'Direct Submission'
p65
sg42
S'NCBI Genome Project'
p66
sg43
S'Submitted (18-NOV-2010) National Center for Biotechnology Information, NIH, Bethesda, MD 20894, USA'
p67
sg45
(lp68
g1
(g47
g3
NtRp69
(dp70
g50
Nsg51
g1
(g52
g53
I16480
tRp71
sg55
g1
(g52
g53
I0
tRp72
sg57
Nsg58
Nsbasg59
S''
sg60
S''
sg62
S''
sbag1
(g37
g3
NtRp73
(dp74
g13
S''
sg40
S'Direct Submission'
p75
sg42
S''
sg43
S'Submitted (29-OCT-2009) Animal Science and Technology, National Taiwan University, No.50, Land 155, Sec.3 Keelung Road, Taipei 10673, Taiwan'
p76
sg45
(lp77
g1
(g47
g3
NtRp78
(dp79
g50
Nsg51
g1
(g52
g53
I16480
tRp80
sg55
g1
(g52
g53
I0
tRp81
sg57
Nsg58
Nsbasg59
S''
sg60
S'Ju,Y.T., Wu,C.Y. and Jiang,Y.N.'
p82
sg62
S''
sbasS'accessions'
p83
(lp84
S'NC_014692'
p85
asS'data_file_division'
p86
S'MAM'
p87
sS'date'
p88
S'06-DEC-2010'
p89
sS'organism'
p90
S'Sus scrofa taiwanensis'
p91
sS'gi'
p92
S'312233363'
p93
ssS'features'
p94
(lp95
g1
(cBio.SeqFeature
SeqFeature
p96
g3
NtRp97
(dp98
S'sub_features'
p99
(lp100
sS'location_operator'
p101
S''
sS'id'
p102
S'<unknown id>'
p103
sg45
g1
(g47
g3
NtRp104
(dp105
g50
Nsg51
g1
(g52
g53
I16480
tRp106
sg55
g1
(g52
g53
I0
tRp107
sg57
I1
sg58
NsbsS'type'
p108
S'source'
p109
sS'qualifiers'
p110
(dp111
S'sub_species'
p112
(lp113
S'taiwanensis'
p114
asS'mol_type'
p115
(lp116
S'genomic DNA'
p117
asS'organelle'
p118
(lp119
S'mitochondrion'
p120
asS'db_xref'
p121
(lp122
S'taxon:310261'
p123
asS'common'
p124
(lp125
S'Taiwan pig'
p126
asS'organism'
p127
(lp128
S'Sus scrofa taiwanensis'
p129
assbag1
(g96
g3
NtRp130
(dp131
g99
(lp132
sg101
S''
sg102
g103
sg45
g1
(g47
g3
NtRp133
(dp134
g50
Nsg51
g1
(g52
g53
I1044
tRp135
sg55
g1
(g52
g53
I0
tRp136
sg57
I1
sg58
Nsbsg108
S'D-loop'
p137
sg110
(dp138
sbag1
(g96
g3
NtRp139
(dp140
g99
(lp141
sg101
S''
sg102
g103
sg45
g1
(g47
g3
NtRp142
(dp143
g50
Nsg51
g1
(g52
g53
I1114
tRp144
sg55
g1
(g52
g53
I1044
tRp145
sg57
I1
sg58
Nsbsg108
S'tRNA'
p146
sg110
(dp147
S'product'
p148
(lp149
S'tRNA-Phe'
p150
assbag1
(g96
g3
NtRp151
(dp152
g99
(lp153
sg101
S''
sg102
g103
sg45
g1
(g47
g3
NtRp154
(dp155
g50
Nsg51
g1
(g52
g53
I2075
tRp156
sg55
g1
(g52
g53
I1114
tRp157
sg57
I1
sg58
Nsbsg108
S'rRNA'
p158
sg110
(dp159
S'note'
p160
(lp161
S'12S ribosomal RNA'
p162
asS'product'
p163
(lp164
S's-rRNA'
p165
assbag1
(g96
g3
NtRp166
(dp167
g99
(lp168
sg101
S''
sg102
g103
sg45
g1
(g47
g3
NtRp169
(dp170
g50
Nsg51
g1
(g52
g53
I2143
tRp171
sg55
g1
(g52
g53
I2075
tRp172
sg57
I1
sg58
Nsbsg108
S'tRNA'
p173
sg110
(dp174
S'product'
p175
(lp176
S'tRNA-Val'
p177
assbag1
(g96
g3
NtRp178
(dp179
g99
(lp180
sg101
S''
sg102
g103
sg45
g1
(g47
g3
NtRp181
(dp182
g50
Nsg51
g1
(g52
g53
I3713
tRp183
sg55
g1
(g52
g53
I2143
tRp184
sg57
I1
sg58
Nsbsg108
S'rRNA'
p185
sg110
(dp186
S'note'
p187
(lp188
S'16S ribosomal RNA'
p189
asS'product'
p190
(lp191
S'l-rRNA'
p192
assbag1
(g96
g3
NtRp193
(dp194
g99
(lp195
sg101
S''
sg102
g103
sg45
g1
(g47
g3
NtRp196
(dp197
g50
Nsg51
g1
(g52
g53
I3425
tRp198
sg55
g1
(g52
g53
I3284
tRp199
sg57
I1
sg58
Nsbsg108
S'STS'
p200
sg110
(dp201
S'db_xref'
p202
(lp203
S'UniSTS:273091'
p204
asS'standard_name'
p205
(lp206
S'PMC31832P1'
p207
assbag1
(g96
g3
NtRp208
(dp209
g99
(lp210
sg101
S''
sg102
g103
sg45
g1
(g47
g3
NtRp211
(dp212
g50
Nsg51
g1
(g52
g53
I3788
tRp213
sg55
g1
(g52
g53
I3713
tRp214
sg57
I1
sg58
Nsbsg108
S'tRNA'
p215
sg110
(dp216
S'codon_recognized'
p217
(lp218
S'UUR'
p219
asS'product'
p220
(lp221
S'tRNA-Leu'
p222
assbag1
(g96
g3
NtRp223
(dp224
g99
(lp225
sg101
S''
sg102
g103
sg45
g1
(g47
g3
NtRp226
(dp227
g50
Nsg51
g1
(g52
g53
I4745
tRp228
sg55
g1
(g52
g53
I3790
tRp229
sg57
I1
sg58
Nsbsg108
S'gene'
p230
sg110
(dp231
S'db_xref'
p232
(lp233
S'GeneID:9978385'
p234
asS'gene'
p235
(lp236
S'ND1'
p237
assbag1
(g96
g3
NtRp238
(dp239
g99
(lp240
sg101
S''
sg102
g103
sg45
g1
(g47
g3
NtRp241
(dp242
g50
Nsg51
g1
(g52
g53
I4745
tRp243
sg55
g1
(g52
g53
I3790
tRp244
sg57
I1
sg58
Nsbsg108
S'CDS'
p245
sg110
(dp246
S'product'
p247
(lp248
S'NADH dehydrogenase subunit 1'
p249
asS'transl_except'
p250
(lp251
S'(pos:4745,aa:TERM)'
p252
asS'codon_start'
p253
(lp254
S'1'
asS'transl_table'
p255
(lp256
S'2'
asS'note'
p257
(lp258
S"TAA stop codon is completed by the addition of 3' A residues to the mRNA"
p259
asS'db_xref'
p260
(lp261
S'GI:312233364'
p262
aS'GeneID:9978385'
p263
asS'translation'
p264
(lp265
S'MFMINILSLIIPILLAVAFLTLVERKVLGYMQLRKGPNVVGPYGLLQPIADALKLFTKEPLRPATSSISMFIIAPILALSLALTMWVPLPMPYPLINMNLGVLFMLAMSSLAVYSILWSGWASNSKYALIGALRAVAQTISYEVTLAIILLSVLLMNGSYTLSTLITTQEHIWMIFTSWPLAMMWFISTLAETNRAPFDLTEGESELVSGFNVEYAAGPFAMFFMAEYANIIMMNAFTAILFLGAFHDPHTSELYTINFVLKTLALTITFLWIRASYPRFRYDQLMHLLWKSFLPLTLALCMWHISLPIMTASIPPQS'
p266
asS'gene'
p267
(lp268
S'ND1'
p269
asS'protein_id'
p270
(lp271
S'YP_004021575.1'
p272
assbag1
(g96
g3
NtRp273
(dp274
g99
(lp275
sg101
S''
sg102
g103
sg45
g1
(g47
g3
NtRp276
(dp277
g50
Nsg51
g1
(g52
g53
I4814
tRp278
sg55
g1
(g52
g53
I4745
tRp279
sg57
I1
sg58
Nsbsg108
S'tRNA'
p280
sg110
(dp281
S'product'
p282
(lp283
S'tRNA-Ile'
p284
assbag1
(g96
g3
NtRp285
(dp286
g99
(lp287
sg101
S''
sg102
g103
sg45
g1
(g47
g3
NtRp288
(dp289
g50
Nsg51
g1
(g52
g53
I4884
tRp290
sg55
g1
(g52
g53
I4811
tRp291
sg57
I-1
sg58
Nsbsg108
S'tRNA'
p292
sg110
(dp293
S'product'
p294
(lp295
S'tRNA-Gln'
p296
assbag1
(g96
g3
NtRp297
(dp298
g99
(lp299
sg101
S''
sg102
g103
sg45
g1
(g47
g3
NtRp300
(dp301
g50
Nsg51
g1
(g52
g53
I4955
tRp302
sg55
g1
(g52
g53
I4885
tRp303
sg57
I1
sg58
Nsbsg108
S'tRNA'
p304
sg110
(dp305
S'product'
p306
(lp307
S'tRNA-Met'
p308
assbag1
(g96
g3
NtRp309
(dp310
g99
(lp311
sg101
S''
sg102
g103
sg45
g1
(g47
g3
NtRp312
(dp313
g50
Nsg51
g1
(g52
g53
I5997
tRp314
sg55
g1
(g52
g53
I4955
tRp315
sg57
I1
sg58
Nsbsg108
S'gene'
p316
sg110
(dp317
S'db_xref'
p318
(lp319
S'GeneID:9978373'
p320
asS'gene'
p321
(lp322
S'ND2'
p323
assbag1
(g96
g3
NtRp324
(dp325
g99
(lp326
sg101
S''
sg102
g103
sg45
g1
(g47
g3
NtRp327
(dp328
g50
Nsg51
g1
(g52
g53
I5997
tRp329
sg55
g1
(g52
g53
I4955
tRp330
sg57
I1
sg58
Nsbsg108
S'CDS'
p331
sg110
(dp332
S'product'
p333
(lp334
S'NADH dehydrogenase subunit 2'
p335
asS'transl_except'
p336
(lp337
S'(pos:5997,aa:TERM)'
p338
asS'codon_start'
p339
(lp340
S'1'
asS'transl_table'
p341
(lp342
S'2'
asS'note'
p343
(lp344
S"TAA stop codon is completed by the addition of 3' A residues to the mRNA"
p345
asS'db_xref'
p346
(lp347
S'GI:312233365'
p348
aS'GeneID:9978373'
p349
asS'translation'
p350
(lp351
S'MNPIIYTTLIMTVMSGTMLVMISSHWLLIWIGFEMNLLAMIPVLMKNFNPRATEAATKYFLTQATASMMLMMAIIINLLYSGQWTITKMFNPVAMTMMTLALAMKLGLSPFHFWVPEVTQGISLQAGLLLLTWQKLAPLSVLCQISQSINPNLMLTMAMLSILIGGWGGLNQTQLRKIMAYSSIAHMGWMTAVLPYNTTMTILNLLIYITTTLAMFMLLIHSSATTTLSLSHTWNKMPIITSLMMVTLLSMGGLPPLSGFMPKWMIIQEMTKNESIIMPTLMAMTALLNLYFYMRLAYSSSLTMFPSTNNMKMKWQFEHTKQMKLLPTMIVLSTLILPMTPALSSLN'
p352
asS'gene'
p353
(lp354
S'ND2'
p355
asS'protein_id'
p356
(lp357
S'YP_004021576.1'
p358
assbag1
(g96
g3
NtRp359
(dp360
g99
(lp361
sg101
S''
sg102
g103
sg45
g1
(g47
g3
NtRp362
(dp363
g50
Nsg51
g1
(g52
g53
I6065
tRp364
sg55
g1
(g52
g53
I5997
tRp365
sg57
I1
sg58
Nsbsg108
S'tRNA'
p366
sg110
(dp367
S'product'
p368
(lp369
S'tRNA-Trp'
p370
assbag1
(g96
g3
NtRp371
(dp372
g99
(lp373
sg101
S''
sg102
g103
sg45
g1
(g47
g3
NtRp374
(dp375
g50
Nsg51
g1
(g52
g53
I6139
tRp376
sg55
g1
(g52
g53
I6071
tRp377
sg57
I-1
sg58
Nsbsg108
S'tRNA'
p378
sg110
(dp379
S'product'
p380
(lp381
S'tRNA-Ala'
p382
assbag1
(g96
g3
NtRp383
(dp384
g99
(lp385
sg101
S''
sg102
g103
sg45
g1
(g47
g3
NtRp386
(dp387
g50
Nsg51
g1
(g52
g53
I6215
tRp388
sg55
g1
(g52
g53
I6140
tRp389
sg57
I-1
sg58
Nsbsg108
S'tRNA'
p390
sg110
(dp391
S'product'
p392
(lp393
S'tRNA-Asn'
p394
assbag1
(g96
g3
NtRp395
(dp396
g99
(lp397
sg101
S''
sg102
g103
sg45
g1
(g47
g3
NtRp398
(dp399
g50
Nsg51
g1
(g52
g53
I6313
tRp400
sg55
g1
(g52
g53
I6247
tRp401
sg57
I-1
sg58
Nsbsg108
S'tRNA'
p402
sg110
(dp403
S'product'
p404
(lp405
S'tRNA-Cys'
p406
assbag1
(g96
g3
NtRp407
(dp408
g99
(lp409
sg101
S''
sg102
g103
sg45
g1
(g47
g3
NtRp410
(dp411
g50
Nsg51
g1
(g52
g53
I6378
tRp412
sg55
g1
(g52
g53
I6312
tRp413
sg57
I-1
sg58
Nsbsg108
S'tRNA'
p414
sg110
(dp415
S'product'
p416
(lp417
S'tRNA-Tyr'
p418
assbag1
(g96
g3
NtRp419
(dp420
g99
(lp421
sg101
S''
sg102
g103
sg45
g1
(g47
g3
NtRp422
(dp423
g50
Nsg51
g1
(g52
g53
I7924
tRp424
sg55
g1
(g52
g53
I6379
tRp425
sg57
I1
sg58
Nsbsg108
S'gene'
p426
sg110
(dp427
S'db_xref'
p428
(lp429
S'GeneID:9978374'
p430
asS'gene'
p431
(lp432
S'COX1'
p433
assbag1
(g96
g3
NtRp434
(dp435
g99
(lp436
sg101
S''
sg102
g103
sg45
g1
(g47
g3
NtRp437
(dp438
g50
Nsg51
g1
(g52
g53
I7924
tRp439
sg55
g1
(g52
g53
I6379
tRp440
sg57
I1
sg58
Nsbsg108
S'CDS'
p441
sg110
(dp442
S'product'
p443
(lp444
S'cytochrome c oxidase subunit I'
p445
asS'codon_start'
p446
(lp447
S'1'
asS'transl_table'
p448
(lp449
S'2'
asS'db_xref'
p450
(lp451
S'GI:312233366'
p452
aS'GeneID:9978374'
p453
asS'translation'
p454
(lp455
S'MFVNRWLYSTNHKDIGTLYLLFGAWAGMVGTALSLLIRAELGQPGTLLGDDQIYNVIVTAHAFVMIFFMVMPIMIGGFGNWLVPLMIGAPDMAFPRMNNMSFWLLPPSFLLLLASSMVEAGAGTGWTVYPPLAGNLAHAGASVDLTIFSLHLAGVSSILGAINFITTIINMKPPAMSQYQTPLFVWSVLITAVLLLLSLPVLAAGITMLLTDRNLNTTFFDPAGGGDPILYQHLFWFFGHPEVYILILPGFGMISHIVTYYSGKKEPFGYMGMVWAMMSIGFLGFIVWAHHMFTVGMDVDTRAYFTSATMIIAIPTGVKVFSWLATLHGGNIKWSPAMLWALGFIFLFTVGGLTGIVLANSSLDIVLHDTYYVVAHFHYVLSMGAVFAIMGGFVHWFPLFSGYTLNQAWAKIHFVIMFVGVNMTFFPQHFLGLSGMPRRYSDYPDAYTAWNTISSMGSFISLTAVMLMIFIIWEAFASKREVSAVELTSTNLEWLHGCPPPYHTFEEPTYINLK'
p456
asS'gene'
p457
(lp458
S'COX1'
p459
asS'protein_id'
p460
(lp461
S'YP_004021577.1'
p462
assbag1
(g96
g3
NtRp463
(dp464
g99
(lp465
sg101
S''
sg102
g103
sg45
g1
(g47
g3
NtRp466
(dp467
g50
Nsg51
g1
(g52
g53
I7998
tRp468
sg55
g1
(g52
g53
I7927
tRp469
sg57
I-1
sg58
Nsbsg108
S'tRNA'
p470
sg110
(dp471
S'codon_recognized'
p472
(lp473
S'UCN'
p474
asS'product'
p475
(lp476
S'tRNA-Ser'
p477
assbag1
(g96
g3
NtRp478
(dp479
g99
(lp480
sg101
S''
sg102
g103
sg45
g1
(g47
g3
NtRp481
(dp482
g50
Nsg51
g1
(g52
g53
I8071
tRp483
sg55
g1
(g52
g53
I8003
tRp484
sg57
I1
sg58
Nsbsg108
S'tRNA'
p485
sg110
(dp486
S'product'
p487
(lp488
S'tRNA-Asp'
p489
assbag1
(g96
g3
NtRp490
(dp491
g99
(lp492
sg101
S''
sg102
g103
sg45
g1
(g47
g3
NtRp493
(dp494
g50
Nsg51
g1
(g52
g53
I8759
tRp495
sg55
g1
(g52
g53
I8071
tRp496
sg57
I1
sg58
Nsbsg108
S'gene'
p497
sg110
(dp498
S'db_xref'
p499
(lp500
S'GeneID:9978375'
p501
asS'gene'
p502
(lp503
S'COX2'
p504
assbag1
(g96
g3
NtRp505
(dp506
g99
(lp507
sg101
S''
sg102
g103
sg45
g1
(g47
g3
NtRp508
(dp509
g50
Nsg51
g1
(g52
g53
I8759
tRp510
sg55
g1
(g52
g53
I8071
tRp511
sg57
I1
sg58
Nsbsg108
S'CDS'
p512
sg110
(dp513
S'product'
p514
(lp515
S'cytochrome c oxidase subunit II'
p516
asS'transl_except'
p517
(lp518
S'(pos:8759,aa:TERM)'
p519
asS'codon_start'
p520
(lp521
S'1'
asS'transl_table'
p522
(lp523
S'2'
asS'note'
p524
(lp525
S"TAA stop codon is completed by the addition of 3' A residues to the mRNA"
p526
asS'db_xref'
p527
(lp528
S'GI:312233367'
p529
aS'GeneID:9978375'
p530
asS'translation'
p531
(lp532
S'MAYPFQLGFQDATSPIMEELLHFHDHTLMIVFLISSLVLYIISLMLTTKLTHTSTMDAQEVETIWTILPAIILILIALPSLRILYMMDEINNPALTVKTMGHQWYWSYEYTDYEDLTFDSYMIPTSDLKPGEMRLLEVDNRVVLPMEMTIRMLVSSEDVLHSWAVPSLGLKTDAIPGRLNQTTLMSTRPGLYYGQCSEICGSNHSFMPIVLELVPLKYFEKWSTSMLTG'
p533
asS'gene'
p534
(lp535
S'COX2'
p536
asS'protein_id'
p537
(lp538
S'YP_004021578.1'
p539
assbag1
(g96
g3
NtRp540
(dp541
g99
(lp542
sg101
S''
sg102
g103
sg45
g1
(g47
g3
NtRp543
(dp544
g50
Nsg51
g1
(g52
g53
I8826
tRp545
sg55
g1
(g52
g53
I8759
tRp546
sg57
I1
sg58
Nsbsg108
S'tRNA'
p547
sg110
(dp548
S'product'
p549
(lp550
S'tRNA-Lys'
p551
assbag1
(g96
g3
NtRp552
(dp553
g99
(lp554
sg101
S''
sg102
g103
sg45
g1
(g47
g3
NtRp555
(dp556
g50
Nsg51
g1
(g52
g53
I9031
tRp557
sg55
g1
(g52
g53
I8827
tRp558
sg57
I1
sg58
Nsbsg108
S'gene'
p559
sg110
(dp560
S'db_xref'
p561
(lp562
S'GeneID:9978376'
p563
asS'gene'
p564
(lp565
S'ATP8'
p566
assbag1
(g96
g3
NtRp567
(dp568
g99
(lp569
sg101
S''
sg102
g103
sg45
g1
(g47
g3
NtRp570
(dp571
g50
Nsg51
g1
(g52
g53
I9031
tRp572
sg55
g1
(g52
g53
I8827
tRp573
sg57
I1
sg58
Nsbsg108
S'CDS'
p574
sg110
(dp575
S'product'
p576
(lp577
S'ATP synthase F0 subunit 8'
p578
asS'codon_start'
p579
(lp580
S'1'
asS'transl_table'
p581
(lp582
S'2'
asS'db_xref'
p583
(lp584
S'GI:312233368'
p585
aS'GeneID:9978376'
p586
asS'translation'
p587
(lp588
S'MPQLDTSTWFITITSMIMTLFILFQLKISNYSYPASPESTELKTQKHSTPWEMKWTKIYLPLSLPLR'
p589
asS'gene'
p590
(lp591
S'ATP8'
p592
asS'protein_id'
p593
(lp594
S'YP_004021579.1'
p595
assbag1
(g96
g3
NtRp596
(dp597
g99
(lp598
sg101
S''
sg102
g103
sg45
g1
(g47
g3
NtRp599
(dp600
g50
Nsg51
g1
(g52
g53
I9669
tRp601
sg55
g1
(g52
g53
I8988
tRp602
sg57
I1
sg58
Nsbsg108
S'gene'
p603
sg110
(dp604
S'db_xref'
p605
(lp606
S'GeneID:9978377'
p607
asS'gene'
p608
(lp609
S'ATP6'
p610
assbag1
(g96
g3
NtRp611
(dp612
g99
(lp613
sg101
S''
sg102
g103
sg45
g1
(g47
g3
NtRp614
(dp615
g50
Nsg51
g1
(g52
g53
I9669
tRp616
sg55
g1
(g52
g53
I8988
tRp617
sg57
I1
sg58
Nsbsg108
S'CDS'
p618
sg110
(dp619
S'product'
p620
(lp621
S'ATP synthase F0 subunit 6'
p622
asS'codon_start'
p623
(lp624
S'1'
asS'transl_table'
p625
(lp626
S'2'
asS'db_xref'
p627
(lp628
S'GI:312233369'
p629
aS'GeneID:9978377'
p630
asS'translation'
p631
(lp632
S'MNENLFASFIAPTMMGLPIVTLIIMFPSLLFPTPKRLINNRTISIQQWLIQLTSKQMMAIHNQKGQTWSLMLMSLIMFIGSTNILGLLPHSFTPTTQLSMNLGMAIPLWSATVFTGFRHKTKTSLAHFLPQGTPAPLIPMLVIIETISLFIQPVALAVRLTANITAGHLLIHLIGGATLALLNISTMTAFITFTILILLTILEFAVALIQAYVFTLLVSLYLHDNT'
p633
asS'gene'
p634
(lp635
S'ATP6'
p636
asS'protein_id'
p637
(lp638
S'YP_004021580.1'
p639
assbag1
(g96
g3
NtRp640
(dp641
g99
(lp642
sg101
S''
sg102
g103
sg45
g1
(g47
g3
NtRp643
(dp644
g50
Nsg51
g1
(g52
g53
I10452
tRp645
sg55
g1
(g52
g53
I9668
tRp646
sg57
I1
sg58
Nsbsg108
S'gene'
p647
sg110
(dp648
S'db_xref'
p649
(lp650
S'GeneID:9978378'
p651
asS'gene'
p652
(lp653
S'COX3'
p654
assbag1
(g96
g3
NtRp655
(dp656
g99
(lp657
sg101
S''
sg102
g103
sg45
g1
(g47
g3
NtRp658
(dp659
g50
Nsg51
g1
(g52
g53
I10452
tRp660
sg55
g1
(g52
g53
I9668
tRp661
sg57
I1
sg58
Nsbsg108
S'CDS'
p662
sg110
(dp663
S'product'
p664
(lp665
S'cytochrome c oxidase subunit III'
p666
asS'transl_except'
p667
(lp668
S'(pos:10452,aa:TERM)'
p669
asS'codon_start'
p670
(lp671
S'1'
asS'transl_table'
p672
(lp673
S'2'
asS'note'
p674
(lp675
S"TAA stop codon is completed by the addition of 3' A residues to the mRNA"
p676
asS'db_xref'
p677
(lp678
S'GI:312233370'
p679
aS'GeneID:9978378'
p680
asS'translation'
p681
(lp682
S'MTHQTHAYHMVNPSPWPLTGALSALLMTSGLIMWFHFNSMLLLSLGLLTNTLTMYQWWRDIIRESTFQGHHTSVVQKGLRYGMILFIISEVLFFTGFFWAFYHSSLAPTPELGGCWPPTGIHPLNPLEVPLLNTSILLASGVSITWAHHSLMEGDRKHMIQALSITIALGVYFTLLQASEYYEAPFTISDGVYGSTFFVATGFHGLHVIIGSTFLAVCLLRQLKFHFTSNHHFGFEAAAWYWHFVDVVWLFLYVSIYWWGS'
p683
asS'gene'
p684
(lp685
S'COX3'
p686
asS'protein_id'
p687
(lp688
S'YP_004021581.1'
p689
assbag1
(g96
g3
NtRp690
(dp691
g99
(lp692
sg101
S''
sg102
g103
sg45
g1
(g47
g3
NtRp693
(dp694
g50
Nsg51
g1
(g52
g53
I10521
tRp695
sg55
g1
(g52
g53
I10452
tRp696
sg57
I1
sg58
Nsbsg108
S'tRNA'
p697
sg110
(dp698
S'product'
p699
(lp700
S'tRNA-Gly'
p701
assbag1
(g96
g3
NtRp702
(dp703
g99
(lp704
sg101
S''
sg102
g103
sg45
g1
(g47
g3
NtRp705
(dp706
g50
Nsg51
g1
(g52
g53
I10867
tRp707
sg55
g1
(g52
g53
I10521
tRp708
sg57
I1
sg58
Nsbsg108
S'gene'
p709
sg110
(dp710
S'db_xref'
p711
(lp712
S'GeneID:9978379'
p713
asS'gene'
p714
(lp715
S'ND3'
p716
assbag1
(g96
g3
NtRp717
(dp718
g99
(lp719
sg101
S''
sg102
g103
sg45
g1
(g47
g3
NtRp720
(dp721
g50
Nsg51
g1
(g52
g53
I10867
tRp722
sg55
g1
(g52
g53
I10521
tRp723
sg57
I1
sg58
Nsbsg108
S'CDS'
p724
sg110
(dp725
S'product'
p726
(lp727
S'NADH dehydrogenase subunit 3'
p728
asS'transl_except'
p729
(lp730
S'(pos:10867,aa:TERM)'
p731
asS'codon_start'
p732
(lp733
S'1'
asS'transl_table'
p734
(lp735
S'2'
asS'note'
p736
(lp737
S"TAA stop codon is completed by the addition of 3' A residues to the mRNA"
p738
asS'db_xref'
p739
(lp740
S'GI:312233371'
p741
aS'GeneID:9978379'
p742
asS'translation'
p743
(lp744
S'MNIMLTLFTNVTLASLLVLIAFWLPQLNTYSEKTSPYECGFDPMGSARLPFSMKFFLVAITFLLFDLEIALLLPLPWASQTNNLKTMLTMALFLLTLLAASLAYEWTQKGLEWTE'
p745
asS'gene'
p746
(lp747
S'ND3'
p748
asS'protein_id'
p749
(lp750
S'YP_004021582.1'
p751
assbag1
(g96
g3
NtRp752
(dp753
g99
(lp754
sg101
S''
sg102
g103
sg45
g1
(g47
g3
NtRp755
(dp756
g50
Nsg51
g1
(g52
g53
I10937
tRp757
sg55
g1
(g52
g53
I10868
tRp758
sg57
I1
sg58
Nsbsg108
S'tRNA'
p759
sg110
(dp760
S'product'
p761
(lp762
S'tRNA-Arg'
p763
assbag1
(g96
g3
NtRp764
(dp765
g99
(lp766
sg101
S''
sg102
g103
sg45
g1
(g47
g3
NtRp767
(dp768
g50
Nsg51
g1
(g52
g53
I11234
tRp769
sg55
g1
(g52
g53
I10937
tRp770
sg57
I1
sg58
Nsbsg108
S'gene'
p771
sg110
(dp772
S'db_xref'
p773
(lp774
S'GeneID:9978380'
p775
asS'gene'
p776
(lp777
S'ND4L'
p778
assbag1
(g96
g3
NtRp779
(dp780
g99
(lp781
sg101
S''
sg102
g103
sg45
g1
(g47
g3
NtRp782
(dp783
g50
Nsg51
g1
(g52
g53
I11234
tRp784
sg55
g1
(g52
g53
I10937
tRp785
sg57
I1
sg58
Nsbsg108
S'CDS'
p786
sg110
(dp787
S'product'
p788
(lp789
S'NADH dehydrogenase subunit 4L'
p790
asS'codon_start'
p791
(lp792
S'1'
asS'transl_table'
p793
(lp794
S'2'
asS'db_xref'
p795
(lp796
S'GI:312233372'
p797
aS'GeneID:9978380'
p798
asS'translation'
p799
(lp800
S'MPLVYMNIIMAFTIALAGLLMYRSHLMSSLLCLEGMMLSLFIMSTLIVLNTHFTLANMMPIILLVFAACEAALGLSLLVMVSNTYGTDYVQNLNLLQC'
p801
asS'gene'
p802
(lp803
S'ND4L'
p804
asS'protein_id'
p805
(lp806
S'YP_004021583.1'
p807
assbag1
(g96
g3
NtRp808
(dp809
g99
(lp810
sg101
S''
sg102
g103
sg45
g1
(g47
g3
NtRp811
(dp812
g50
Nsg51
g1
(g52
g53
I12605
tRp813
sg55
g1
(g52
g53
I11227
tRp814
sg57
I1
sg58
Nsbsg108
S'gene'
p815
sg110
(dp816
S'db_xref'
p817
(lp818
S'GeneID:9978381'
p819
asS'gene'
p820
(lp821
S'ND4'
p822
assbag1
(g96
g3
NtRp823
(dp824
g99
(lp825
sg101
S''
sg102
g103
sg45
g1
(g47
g3
NtRp826
(dp827
g50
Nsg51
g1
(g52
g53
I12605
tRp828
sg55
g1
(g52
g53
I11227
tRp829
sg57
I1
sg58
Nsbsg108
S'CDS'
p830
sg110
(dp831
S'product'
p832
(lp833
S'NADH dehydrogenase subunit 4'
p834
asS'transl_except'
p835
(lp836
S'(pos:12605,aa:TERM)'
p837
asS'codon_start'
p838
(lp839
S'1'
asS'transl_table'
p840
(lp841
S'2'
asS'note'
p842
(lp843
S"TAA stop codon is completed by the addition of 3' A residues to the mRNA"
p844
asS'db_xref'
p845
(lp846
S'GI:312233373'
p847
aS'GeneID:9978381'
p848
asS'translation'
p849
(lp850
S'MLKIIIPTTMLLPMTWMSKHNMIWINATVHSLLISLISLSLLNQLGENSLNFSLTFFSDSLSAPLLVLTTWLLPLMLMASQSHLSKETTTRKKLYITMLILLQLFLIMTFTATELILFYILFEATLVPTLIIITRWGNQTERLNAGLYFLFYTLAGSLPLLVALVYIQNTTGSLNFLIIHYWSHPLSNSWSNIFMWLACIMAFMVKMPLYGLHLWLPKAHVEAPIAGSMVLAAVLLKLGGYGMMRITTILNPLTNYMAYPFLMLSMWGMIMTSSICLRQTDLKSLIAYSSVSHMALVIVAIMIQTPWSFMGATALMIAHGLTSSMLFCLANTNYERVHSRTMILARGLQTLLPLMATWWLMASLTNLALPPSINLIGELFIITASFSWSNITIILMGMNMMITALYSLYMLIITQRGKYTHHINNIKPSFTRENALMALHILPLLLLTLNPKMILGPLY'
p851
asS'gene'
p852
(lp853
S'ND4'
p854
asS'protein_id'
p855
(lp856
S'YP_004021584.1'
p857
assbag1
(g96
g3
NtRp858
(dp859
g99
(lp860
sg101
S''
sg102
g103
sg45
g1
(g47
g3
NtRp861
(dp862
g50
Nsg51
g1
(g52
g53
I12674
tRp863
sg55
g1
(g52
g53
I12605
tRp864
sg57
I1
sg58
Nsbsg108
S'tRNA'
p865
sg110
(dp866
S'product'
p867
(lp868
S'tRNA-His'
p869
assbag1
(g96
g3
NtRp870
(dp871
g99
(lp872
sg101
S''
sg102
g103
sg45
g1
(g47
g3
NtRp873
(dp874
g50
Nsg51
g1
(g52
g53
I12733
tRp875
sg55
g1
(g52
g53
I12674
tRp876
sg57
I1
sg58
Nsbsg108
S'tRNA'
p877
sg110
(dp878
S'codon_recognized'
p879
(lp880
S'AGY'
p881
asS'product'
p882
(lp883
S'tRNA-Ser'
p884
assbag1
(g96
g3
NtRp885
(dp886
g99
(lp887
sg101
S''
sg102
g103
sg45
g1
(g47
g3
NtRp888
(dp889
g50
Nsg51
g1
(g52
g53
I12803
tRp890
sg55
g1
(g52
g53
I12733
tRp891
sg57
I1
sg58
Nsbsg108
S'tRNA'
p892
sg110
(dp893
S'codon_recognized'
p894
(lp895
S'CUN'
p896
asS'product'
p897
(lp898
S'tRNA-Leu'
p899
assbag1
(g96
g3
NtRp900
(dp901
g99
(lp902
sg101
S''
sg102
g103
sg45
g1
(g47
g3
NtRp903
(dp904
g50
Nsg51
g1
(g52
g53
I14624
tRp905
sg55
g1
(g52
g53
I12803
tRp906
sg57
I1
sg58
Nsbsg108
S'gene'
p907
sg110
(dp908
S'db_xref'
p909
(lp910
S'GeneID:9978382'
p911
asS'gene'
p912
(lp913
S'ND5'
p914
assbag1
(g96
g3
NtRp915
(dp916
g99
(lp917
sg101
S''
sg102
g103
sg45
g1
(g47
g3
NtRp918
(dp919
g50
Nsg51
g1
(g52
g53
I14624
tRp920
sg55
g1
(g52
g53
I12803
tRp921
sg57
I1
sg58
Nsbsg108
S'CDS'
p922
sg110
(dp923
S'product'
p924
(lp925
S'NADH dehydrogenase subunit 5'
p926
asS'codon_start'
p927
(lp928
S'1'
asS'transl_table'
p929
(lp930
S'2'
asS'db_xref'
p931
(lp932
S'GI:312233374'
p933
aS'GeneID:9978382'
p934
asS'translation'
p935
(lp936
S'MNPFASLTLTTLTILTIPIMMSNSNIYKTNLYPNYVKTTMSYAFTLSLVPLLMFMHTGQEMIISNWHWMTLQTVELSLSFKMDYFSVMFIPVALFVTWSIMEFSMWYMHSDPFINRFFKYLLLFLITMMILVTANNLFQLFIGWEGVGIMSFLLIGWWHGRTDANTAALQAILYNRIGDIGFVLSMAWFLTHSNAWDFQQIFMLNNKCPNMPLIGLLLAAAGKSAQFGLHPWLPSAMEGPTPVSALLHSSTMVVAGVFLLIRFYPLMETNKLVQTMTLCLGAITTLFTALCAITQNDIKKIVAFSTSSQLGLMMVTIGINQPHLAFLHICMHAFFKAMLFMCSGSIIHSLNDEQDIRKMGGLYKAMPFTTTALIIGSLALTGMPYLTGFYSKDLIIEAANMSYTNAWALLMTLIATSLTAAYSTRIIFFAFLGQPRFPPLVLINENNPLLINSIKRLLIGSIFAGFIISNNIPPMTVPNTTMPLYMKMTALIVTIMGFMLALELNNTTYYLKFKYPSQTYKFSNMLGYYPSIMHRLPTYHNLSMSQKSASSLLDLIWLETILPKTTSFIQMKMSIMVSNQKGLIKLYFLSFLITIMISMMLFNYHE'
p937
asS'gene'
p938
(lp939
S'ND5'
p940
asS'protein_id'
p941
(lp942
S'YP_004021585.1'
p943
assbag1
(g96
g3
NtRp944
(dp945
g99
(lp946
sg101
S''
sg102
g103
sg45
g1
(g47
g3
NtRp947
(dp948
g50
Nsg51
g1
(g52
g53
I15135
tRp949
sg55
g1
(g52
g53
I14607
tRp950
sg57
I-1
sg58
Nsbsg108
S'gene'
p951
sg110
(dp952
S'db_xref'
p953
(lp954
S'GeneID:9978383'
p955
asS'gene'
p956
(lp957
S'ND6'
p958
assbag1
(g96
g3
NtRp959
(dp960
g99
(lp961
sg101
S''
sg102
g103
sg45
g1
(g47
g3
NtRp962
(dp963
g50
Nsg51
g1
(g52
g53
I15135
tRp964
sg55
g1
(g52
g53
I14607
tRp965
sg57
I-1
sg58
Nsbsg108
S'CDS'
p966
sg110
(dp967
S'product'
p968
(lp969
S'NADH dehydrogenase subunit 6'
p970
asS'codon_start'
p971
(lp972
S'1'
asS'transl_table'
p973
(lp974
S'2'
asS'db_xref'
p975
(lp976
S'GI:312233375'
p977
aS'GeneID:9978383'
p978
asS'translation'
p979
(lp980
S'MTMYIAFILSTIFVIGFVGFSSKPSPIYGGLGLIVSGGVGCGIVLNFGGSFLGLMVFLIYLGGMLVVFGYTTAMATEMYPEVWVSNKTVFGAFVSGLMMEFCMVYYALKEEEVEIIFKFNGLGDWVIYDTGDSGFFSEEAMGIAALYSYGTWLVIVTGWSLFIGVVVIMEITRGN'
p981
asS'gene'
p982
(lp983
S'ND6'
p984
asS'protein_id'
p985
(lp986
S'YP_004021586.1'
p987
assbag1
(g96
g3
NtRp988
(dp989
g99
(lp990
sg101
S''
sg102
g103
sg45
g1
(g47
g3
NtRp991
(dp992
g50
Nsg51
g1
(g52
g53
I15204
tRp993
sg55
g1
(g52
g53
I15135
tRp994
sg57
I-1
sg58
Nsbsg108
S'tRNA'
p995
sg110
(dp996
S'product'
p997
(lp998
S'tRNA-Glu'
p999
assbag1
(g96
g3
NtRp1000
(dp1001
g99
(lp1002
sg101
S''
sg102
g103
sg45
g1
(g47
g3
NtRp1003
(dp1004
g50
Nsg51
g1
(g52
g53
I16348
tRp1005
sg55
g1
(g52
g53
I15208
tRp1006
sg57
I1
sg58
Nsbsg108
S'gene'
p1007
sg110
(dp1008
S'db_xref'
p1009
(lp1010
S'GeneID:9978384'
p1011
asS'gene'
p1012
(lp1013
S'CYTB'
p1014
assbag1
(g96
g3
NtRp1015
(dp1016
g99
(lp1017
sg101
S''
sg102
g103
sg45
g1
(g47
g3
NtRp1018
(dp1019
g50
Nsg51
g1
(g52
g53
I16348
tRp1020
sg55
g1
(g52
g53
I15208
tRp1021
sg57
I1
sg58
Nsbsg108
S'CDS'
p1022
sg110
(dp1023
S'product'
p1024
(lp1025
S'cytochrome b'
p1026
asS'codon_start'
p1027
(lp1028
S'1'
asS'transl_table'
p1029
(lp1030
S'2'
asS'db_xref'
p1031
(lp1032
S'GI:312233376'
p1033
aS'GeneID:9978384'
p1034
asS'translation'
p1035
(lp1036
S'MTNIRKSHPLMKIINNAFIDLPAPSNISSWWNFGSLLGICLILQILTGLFLAMHYTSDTTTAFSSVTHICRDVNYGWVIRYLHANGASMFFICLFIHVGRGLYYGSYMFLETWNIGVVLLFTVMATAFMGYVLPWGQMSFWGATVITNLLSAIPYIGTDLVEWIWGGFSVDKATLTRFFAFHFILPFIITALAAVHLLFLHETGSNNPTGISSDMDKIPFHPYYTIKDILGALFMMLILLILVLFSPDLLGDPDNYTPANPLNTPPHIKPEWYFLFAYAILRSIPNKLGGVLALVASILILILMPMLHTSKQRSMMFRPLSQCLFWMLVADLITLTWIGGQPVEHPFIIIGQLASILYFLIILVLMPITSIIENNLLKW'
p1037
asS'gene'
p1038
(lp1039
S'CYTB'
p1040
asS'protein_id'
p1041
(lp1042
S'YP_004021587.1'
p1043
assbag1
(g96
g3
NtRp1044
(dp1045
g99
(lp1046
sg101
S''
sg102
g103
sg45
g1
(g47
g3
NtRp1047
(dp1048
g50
Nsg51
g1
(g52
g53
I16416
tRp1049
sg55
g1
(g52
g53
I16348
tRp1050
sg57
I1
sg58
Nsbsg108
S'tRNA'
p1051
sg110
(dp1052
S'product'
p1053
(lp1054
S'tRNA-Thr'
p1055
assbag1
(g96
g3
NtRp1056
(dp1057
g99
(lp1058
sg101
S''
sg102
g103
sg45
g1
(g47
g3
NtRp1059
(dp1060
g50
Nsg51
g1
(g52
g53
I16480
tRp1061
sg55
g1
(g52
g53
I16416
tRp1062
sg57
I-1
sg58
Nsbsg108
S'tRNA'
p1063
sg110
(dp1064
S'product'
p1065
(lp1066
S'tRNA-Pro'
p1067
assbasS'_seq'
p1068
g1
(cBio.Seq
Seq
p1069
g3
NtRp1070
(dp1071
S'alphabet'
p1072
g1
(cBio.Alphabet.IUPAC
IUPACAmbiguousDNA
p1073
g3
NtRp1074
sS'_data'
p1075
S'CAACCAAAACAAGCATTCCATTCGTATGCAAACCAAAACGCCAAGTACTTAATTACTATCTTTAAAACAAAAAAACCCATAAAAATTGCGCACAAACATACAAATATGCGACCCCAAAAATTTAACCATTAAAAACAAAAAATTTAATATATTATAGCCCTATGTACGTCGTGCATTAACTGCTAGTCCCCATGCATATAAGCATGTACATATTATTATTAATATTACATAGTACATACTATTATTGATCGTACATAGCACATATCATGTCAAATAACTCCAGTCAACATGCGTATCACCACCATTAGATCACGAGCTTAATTACCATGCCGCGTGAAACCAGCAACCCGCTTGGCAGGGATCCCTCTTCTCGCTCCGGGCCCATAAATCGTGGGGGTTTCTATTGATGAACTTTAACAGGCATCTGGTTCTTACTTCAGGACCATCTCACCTAAAATCGCCCACTCTTTCCCCTTAAATAAGACATCTCGATGGACTAGTGACTAATCAGCCCATGCTCACACATAACTGAGGTTTCATACATTTGGTATTTTTTAACTTTTGGGGATGCTTGGACTCAGCCATGGCCGTCAAAGGCCCTAACACAGTCAAATCAATTGTAGCTGGACTTCATGGAACTCATGATCCGGCACGACAATCCAAACAAGGTGCTATTCAGTCAATGGTTACAGGACATAACGTGCGTACACGCGCATATAAGCAGGTAAATTATTAGCTCATTCAAACCCCCCTTACCCCCCATTAAACTTATGCTCTACACACCNTATAACGCCTTGCCAAACCCCAAAAACAAAGCAGAGTGTACAAATACAATAAGCCTAACTTACACTAAACAACATTTAACAACACAAACCACCATATCTTATAAAACACTTACTTAAATACGTGCTACGAAAGCAGGCACCTACCCCCCTAGATTTTTACGCCAATCTACCACAAATAAGTTTAAAATTACAACACAATAACCACCCAAAATATAAGCACCTATTTAAGCATACGCCCACAATCTGAATATAGCTTATAGTTAATGTAGCTTAAATTATCAAAGCAAGGCACTGAAAATGCCTAGATGGGCCTCACAGCCCCATAAACACACAGGTTTGGTCCTGGCCTTTCTATTAATTCTTAATAAAATTACACATGCAAGTATCCGCGCCCCGGTGAGAATGCCCTCCAGATCCTAAAGATCAAAAGGAGCAGGTATCAAGCACACCTATAACGGTAGCTCATAACGCCTTGCTCAACCACACCCCCACGGGAAACAGCAGTGATAAAAATTAAGCCATGAACGAAAGTTTGACTAAGTTATATTAATTAGAGTTGGTAAATCTCGTGCCAGCCACCGCGGTCATACGATTAACCCAAATTAATAGATCCACGGCGTAAAGAGTGTTTAAGAAAAAAAAACCACAATAGAGTTAAATTATAACTAAGCTGTAAAAAGCCCTAGTTAAAATAAAATAACCCACGAAAGTGACTCTAATAATCCTGACACACGATAGCTAGGACCCAAACTGGGATTAGATACCCCACTATGCCTAGCCCTAAACCCAAATAGTTACATAACAAAACTATTCGCCAGAGTACTACTCGCAACTGCCTAAAACTCAAAGGACTTGGCGGTGCTTCACATCCACCTAGAGGAGCCTGTTCTATAATCGATAAACCCCGATAGACCTTACCAACCCTTGCCAATTCAGCCTATATACCGCCATCTTCAGCAAACCCTAAAAAGGAACAATAGTAAGCACAATCATAACACATAAAAACGTTAGGTCAAGGTGTAGCTTATGGGTTGGAAAGAAATGGGCTACATTTTCTACATAAGAATACCCACCATACGAAAGTTTTTATGAAACTAAAAACCAAAGGAGGATTTAGCAGTAAATCAAGAATAGAGTGCTTGATTGAATAAGGCCATGAAGCACGCACACACCGCCCGTCACCCTCCTCAAGCATGTAGTAATAAAAATAACCTATATTCAATTACACAACCATGCAAGAAGAGACAAGTCGTAACAAGGTAAGCATACTGGAAAGTGTGCTTGGATTACCAAAGCATAGCTTAAACTAAAGCACCTAGTTTACACCTAGAAGATCCCATAATATATGGGTACTTTGAACCAAAGCTAGCTCAACATACTAAACAAATACAAAAATACACCAAAATAAAATAAAACATTCACCTAACATTAAAGTATAGGAGATAGAAATTTTTATCCTGACGCTATAGAGATAGTACCGTAAGGGAAAGATGAAAGAATAAAATAAAAGTAAAAAAAAGCAAAGATTACCCCTTCTACCTTTTGCATAATGGTTTAACCAGAAAAAATCTAACAAAGAGAACTTTAGCTAGATACCCCGAAACCAGACGAGCTACCTATGAGCAGTTTAAAAGAACCAACTCATCTATGTGGCAAAATAGTGAGAAGACTTGTAGGTAGAGGTGAAAAGCCTAACGAGCCTGGTGATAGCTGGTTGTCCGAGAAAGAATTTTAGTTCAACCTTAAAAATACCCCAAAAACCCTAAATTCCAATGTATTTTTAAGAGATAGTCTAAAAAGGTACAGCTTTTTAGAAACGGATACAACCTTGACTAGAGAGTAAAATCTTAATACTACCATAGTAGGCCTAAAAGCAGCCATCAATTGAGAAAGCGTTAAAGCTCAACAAATTCACCAACATAATCCCAAAAACTAATAACAAACTCCTAGCCCAATACCGGACTAATCTATTGAAACATAGAAGCAATAATGTTAATATGAGTAACAAGAAGCCTTTCTCCTCGCACACGCTTACATCAGTAACTAATAATATACTGATAATTAACAATCAATAAACCAAAACAACACTAAAGCGTTTATTAATTATATTGTTAACCCAACACAGGAGTGCACCAAGGAAAGATTAAAAGAAGTAAAAGGAACTCGGCAAACACAAACCCCGCCTGTTTACCAAAAACATCACCTCTAGCATTACTAGTATTAGAGGCAATGCCTGCCCAGTGACACCAGTTTAACGGCCGCGGTATTCTGACCGTGCAAAGGTAGCATAATCACTTGTTCTCCAAATAAGGACTTGTATGAATGGCCACACGAGGGTTTTACTGTCTCTTACTTCCAATCAGTGAAATTGACCTTCCCGTGAAGAGGCGGGAATAAAAAAATAAGACGAGAAGACCCTATGGAGCTTTAATTAACTATTCCAAAAGTTAAACAATTCAACCACAAAGGGATAAAACATAACTTAACATGGACTAGCAATTTCGGTTGGGGTGACCTCGGAGTACAAAAAACCCTCCGAGTGATTTTAATCTAGACAAACCAGTCAAAATAACCATAACATCACTTATTGATCCAAAATTTTGATCAACGGAACAAGTTACCCTAGGGATAACAGCGCAATCCTATTCTAGAGTTCCTATCGACAATAGGGTTTACGACCTCGATGTTGGATCAGGACACCCAAATGGTGCAACCGCTATTAAAGGTTCGTTTGTTCAACGATTAAAGTCCTACGTGATCTGAGTTCAGACCGGAGCAATCCAGGTCGGTTTCTATCTATTATAAATTTCTCCCAGTACGAAAGGACAAGAGAAATGGGACCAACCTCACAAACGCGTCTCAGAGATAATTAATGATATAATCTTAACCTAATTAACTCATAATAAATCCAGCCCTAGAACAGGGCACATTAGGGTGGCAGAGACCGGTAATTGCGTAAAACTTAAACCTTTATTACCAGAGGTTCAACTCCTCTCCCTAATAGCATGTTCATAATTAACATTCTAAGCCTAATCATTCCTATCCTACTGGCCGTAGCATTCCTCACCCTAGTAGAACGAAAAGTACTAGGTTATATGCAACTACGAAAAGGACCCAACGTTGTAGGCCCCTACGGCCTACTCCAACCCATCGCCGATGCCCTAAAACTATTCACCAAAGAACCCCTACGACCAGCCACATCCTCAATCTCCATGTTCATTATTGCACCAATCCTAGCCTTATCCCTAGCACTAACAATATGAGTTCCACTACCAATACCCTACCCTCTAATCAACATAAATCTAGGAGTACTATTCATGCTAGCCATGTCAAGCCTAGCAGTCTATTCTATCCTATGATCAGGATGAGCATCTAACTCAAAATACGCACTCATCGGGGCCCTACGAGCAGTAGCCCAAACAATTTCATATGAAGTAACACTGGCAATCATCCTACTATCAGTGCTCCTAATAAATGGATCATATACTCTATCCACCCTAATCACAACACAAGAGCACATTTGAATAATCTTTACATCCTGACCCCTAGCCATAATATGATTTATCTCAACCCTAGCAGAAACCAACCGAGCCCCGTTCGACCTTACAGAAGGAGAGTCAGAACTTGTATCAGGCTTTAACGTAGAATATGCAGCCGGACCTTTCGCCATATTCTTCATAGCAGAATATGCCAACATCATCATAATAAATGCATTCACAGCAATTCTCTTCCTAGGAGCATTCCACGACCCACACACATCAGAACTATATACAATCAACTTCGTACTAAAAACACTCGCATTAACAATCACCTTCCTATGAATCCGAGCATCATACCCACGATTCCGATATGACCAACTAATACATTTACTATGAAAAAGCTTCCTGCCCCTAACACTAGCTCTATGTATATGACACATCTCACTCCCTATTATAACAGCAAGTATTCCCCCACAATCATAGAAATATGTCTGATAAAAGAGTTACTTTGATAGAGTAAAAAATAGAGGTTCAAACCCTCTTATTTCTAGAACAATAGGACTCGAACCTAAACCTGAGAATTCAAAATTCTCCGTGCTACCAAAATACACCACATTCTACAGTAAGGTCAGCTAAGCTAAGCTATCGGGCCCATACCCCGAAAATGTTGGTTCATACCCTTCCCATACTAATAAATCCCATTATCTACACTACCCTTATCATAACAGTAATATCCGGAACCATACTAGTAATAATCAGCTCACACTGACTACTCATCTGAATCGGATTCGAAATAAACCTATTAGCAATAATCCCAGTATTAATAAAAAATTTTAACCCACGAGCCACAGAAGCAGCCACAAAATATTTCCTAACACAAGCCACAGCCTCCATGATACTAATAATAGCCATCATCATCAACCTCCTATATTCTGGCCAATGGACCATTACAAAAATATTTAACCCAGTAGCAATAACAATAATAACCCTGGCCCTAGCCATAAAACTAGGACTCTCACCTTTCCACTTCTGAGTCCCAGAAGTAACCCAAGGCATTTCACTACAAGCAGGCCTACTATTACTAACATGACAAAAACTAGCCCCATTATCAGTACTATGCCAAATCTCACAATCAATCAACCCAAACCTAATATTAACTATGGCCATATTATCAATTTTAATCGGAGGGTGAGGAGGACTAAACCAAACCCAACTTCGAAAAATCATAGCATATTCATCAATCGCACACATAGGATGAATGACAGCAGTATTACCATATAACACAACCATAACAATCTTAAACCTACTAATTTACATCACAACAACACTAGCAATATTCATACTATTAATCCACAGCTCAGCAACCACAACTTTATCCCTATCCCATACATGAAACAAGATACCCATCATCACAAGCCTAATAATAGTAACCCTACTCTCAATAGGAGGCCTGCCTCCACTATCAGGATTTATACCAAAATGAATAATCATTCAAGAAATAACAAAAAATGAAAGCATCATCATGCCAACACTCATAGCAATAACAGCACTGCTAAACCTCTATTTCTACATACGACTAGCCTACTCCTCCTCACTGACTATGTTCCCATCCACCAATAACATAAAAATAAAATGACAATTCGAACACACAAAACAAATAAAACTACTTCCCACAATAATTGTATTATCGACACTAATCCTACCTATAACACCAGCCCTCTCGTCCCTAAACTAGGAATTTAGGTTAACACAGACCAAGAGCCTTCAAAGCTCTAAGTAAGTACAAAGTACTTAACTCCTGAAAACCTAAGGACTGCAGGATTCATCCTACATCAATTGAATGCAAATCAAACACTTTAATTAAGCTAAATCCTCACTAGATTGGTGGGATTACATACCCACGAAACTTTTAGTTAACAGCTAAACACCCTAATCAACTGGCTTCAATCTACTTCTCCCGCCGCAGGGAAAAAAAGGCGGGAGAAGTCCCGGCAGAATTGAAGCTGCTTCTTTGAATTTGCAATTCAACATGACATTCACCACGGAACTGGCAAAAAGAGGGCTTAACCTCTGTCTTTAGATTTACAGTCTAATGCTTACTCAGCCATTTTACCTATGTTCGTAAATCGTTGACTATACTCAACAAACCACAAAGACATCGGCACCCTGTACCTACTATTTGGTGCCTGAGCAGGAATAGTGGGCACTGCCTTGAGCCTACTAATTCGCGCTGAACTAGGTCAGCCCGGAACCCTACTTGGCGATGATCAAATCTATAATGTAATTGTTACAGCTCATGCCTTTGTAATAATCTTCTTTATAGTAATACCCATTATGATTGGGGGTTTTGGTAACTGACTCGTACCGCTAATAATCGGAGCTCCCGATATGGCCTTTCCACGTATAAACAACATAAGTTTCTGACTACTTCCACCATCCTTCCTATTACTACTGGCATCCTCAATAGTAGAAGCCGGGGCGGGTACCGGATGAACCGTATACCCACCTTTAGCTGGAAACTTAGCCCATGCAGGAGCTTCAGTTGATCTAACAATTTTCTCCCTACACCTTGCAGGTGTATCATCAATCCTAGGGGCTATTAATTTCATTACCACAATTATTAACATAAAACCTCCCGCAATGTCTCAATACCAAACACCCCTGTTTGTCTGATCAGTACTAATCACAGCCGTACTACTTCTACTATCCCTGCCAGTTCTAGCAGCTGGCATTACTATACTACTGACAGACCGCAACCTGAACACAACCTTTTTTGATCCAGCAGGTGGTGGAGACCCTATCCTTTATCAACACTTGTTCTGATTTTTCGGACACCCAGAAGTATATATTCTCATCTTACCAGGGTTCGGAATAATCTCCCACATTGTAACCTACTATTCAGGTAAAAAAGAACCATTTGGATATATAGGCATAGTATGAGCCATAATGTCCATTGGATTCTTAGGTTTTATCGTATGGGCTCACCACATATTCACCGTAGGAATAGACGTGGATACCCGAGCATACTTTACATCTGCCACAATAATCATTGCTATTCCCACTGGAGTAAAAGTATTTAGTTGATTAGCTACCCTGCACGGCGGCAATATTAAATGATCACCCGCAATACTATGAGCTCTGGGCTTCATCTTCCTATTCACCGTAGGAGGTCTAACGGGCATTGTACTAGCTAACTCCTCCCTAGACATTGTATTACATGATACATATTATGTAGTCGCACACTTCCACTATGTCTTATCTATAGGAGCAGTGTTTGCCATTATAGGGGGCTTTGTTCACTGATTCCCCCTATTCTCCGGGTACACACTCAACCAAGCATGAGCAAAAATTCACTTTGTAATTATATTCGTAGGAGTAAATATAACATTCTTTCCACAACACTTTCTAGGACTATCCGGAATACCTCGACGATACTCCGATTATCCTGACGCATACACAGCATGAAATACTATTTCCTCAATAGGCTCATTCATCTCACTAACAGCAGTGATATTAATAATCTTCATTATCTGAGAAGCATTTGCATCAAAACGAGAAGTATCTGCAGTAGAACTGACAAGCACAAACCTAGAATGACTACACGGATGTCCTCCTCCCTATCACACATTTGAAGAACCAACATATATCAACCTAAAATAAGCATAAGAAAGGAAGGAATCGAACCCTCTCCCACTGGTTTCAAGCCAACGTCATAACCACTATGTCTTTCTCGATAATCGAGGTATTAGTAAAATATTACATAACTTTGTCGAAGTTATATTATAGGTGAAAGCCCTATATGCCTCTATGGCTTACCCTTTCCAACTAGGCTTCCAAGACGCCACTTCACCCATCATAGAAGAACTCCTACACTTTCACGATCACACCTTAATAATTGTATTCTTAATCAGCTCTTTAGTGTTATATATCATTTCACTTATACTAACAACAAAACTGACACACACTAGCACAATGGATGCCCAAGAAGTAGAAACAATTTGAACAATCCTACCCGCTATTATTTTAATTCTTATTGCCCTTCCATCATTACGAATCCTTTATATAATAGACGAAATTAATAACCCAGCCTTAACCGTAAAAACCATAGGACATCAGTGATACTGAAGCTATGAGTATACAGACTATGAAGACCTCACCTTTGACTCATATATAATCCCCACATCAGATCTTAAACCTGGAGAAATACGACTACTAGAAGTAGACAATCGAGTTGTTCTGCCAATAGAAATAACAATCCGAATATTAGTGTCCTCTGAAGACGTACTACACTCATGAGCTGTCCCATCCCTCGGTTTAAAAACAGATGCTATCCCAGGACGACTAAACCAAACAACTCTAATATCCACACGACCTGGCCTTTATTACGGACAGTGCTCAGAGATCTGTGGATCAAACCACAGCTTCATGCCCATTGTACTTGAACTTGTCCCATTAAAGTACTTCGAAAAATGGTCAACATCAATATTAACAGGTTCATTGAGAAGCTAGTCAGCACTAACCTTTTAAGTTAGAGATCGGGAGCCTAAATCTCCCCTCAATGGTATGCCACAACTAGATACATCTACATGATTCATTACAATTACATCAATAATTATAACATTATTTATTTTATTCCAACTAAAAATCTCAAACTACTCATACCCAGCAAGCCCAGAATCAACCGAACTCAAAACTCAAAAACATAGCACCCCTTGAGAAATAAAATGAACGAAAATCTATTTGCCTCTTTCATTGCCCCTACGATAATAGGACTACCTATTGTCACCTTAATTATTATATTCCCAAGCTTACTATTCCCAACACCCAAACGACTCATTAATAACCGCACAATCTCGATCCAACAATGATTAATCCAACTAACATCCAAACAAATAATAGCTATTCACAACCAAAAAGGCCAAACCTGATCACTAATACTTATATCTCTAATTATATTCATTGGCTCAACAAACATCCTAGGCCTACTACCACACTCATTCACACCCACCACACAACTATCAATAAACCTGGGTATAGCAATCCCCCTATGATCAGCAACCGTATTCACAGGATTCCGCCATAAAACCAAAACATCACTAGCCCACTTTCTACCACAAGGAACACCCGCCCCATTAATTCCTATGCTCGTAATTATTGAAACTATTAGCCTATTTATTCAACCAGTAGCCCTAGCCGTACGACTGACAGCCAACATTACAGCAGGGCACCTATTAATTCATCTAATTGGAGGGGCCACATTAGCACTACTCAACATCAGCACTATAACAGCTTTTATCACATTTACTATCCTCATCCTATTAACTATTCTTGAATTTGCAGTAGCTCTGATCCAAGCTTATGTGTTTACACTGCTAGTAAGCTTATACCTACACGACAATACATAATGACCCACCAAACACATGCATACCACATAGTAAACCCAAGCCCATGACCACTTACCGGAGCCCTATCAGCCCTTTTAATAACATCAGGCCTAATTATATGATTCCACTTTAACTCTATACTCTTACTATCTCTAGGACTATTAACCAATACTTTGACAATATACCAATGGTGACGAGACATTATTCGAGAAAGCACTTTCCAAGGCCACCACACATCAGTCGTCCAAAAAGGCTTACGATACGGTATAATTTTATTTATTATTTCCGAGGTTCTGTTCTTCACTGGATTCTTTTGAGCTTTCTACCACTCAAGCCTAGCACCAACACCCGAATTAGGAGGTTGCTGACCACCAACAGGAATTCACCCACTAAACCCCCTAGAAGTACCCCTACTAAACACCTCAATCCTCCTCGCCTCAGGAGTATCCATTACCTGAGCCCATCACAGCCTAATAGAAGGGGACCGAAAACACATAATCCAAGCACTATCCATCACCATTGCACTAGGCGTATACTTCACCCTCCTCCAAGCCTCAGAATATTACGAAGCACCATTCACAATCTCCGACGGAGTGTATGGATCCACTTTCTTTGTGGCTACAGGATTTCACGGGTTGCACGTAATCATCGGATCTACTTTCCTAGCAGTGTGCTTACTACGACAACTAAAATTCCACTTCACATCCAACCACCACTTCGGCTTTGAAGCCGCAGCCTGATACTGACACTTCGTAGATGTAGTTTGACTATTCCTTTACGTATCAATCTATTGATGAGGATCCTACTCTTTTAGTATTAAGCAGTACAATTGACTTCCAATCAATCAGTTTCGGTAAACTCCGAAAAAGAGTAATAAATATTATACTAACACTATTCACAAACGTAACCCTAGCCTCCCTACTCGTACTAATCGCATTCTGACTACCCCAACTAAACACATATTCAGAAAAAACAAGCCCATATGAATGTGGATTTGACCCCATAGGATCAGCACGCCTCCCATTCTCAATAAAATTTTTCCTAGTAGCCATTACATTTCTCCTTTTTGATCTAGAAATCGCCCTCCTCCTTCCCCTACCATGAGCATCCCAAACAAACAATCTAAAAACAATACTTACAATAGCACTATTCCTTCTTACCCTACTAGCAGCAAGCCTAGCATACGAATGAACCCAAAAAGGCCTAGAATGAACAGAATATGATAATTAGTTTAAAACAAAACAAATGATTTCGACTCATTAGACTATGATTTACTTCATAATTATCAAGTGCCATTAGTATACATAAACATCATTATAGCATTCACGATTGCCCTTGCAGGGTTACTTATATATCGATCTCACTTAATATCTTCACTACTATGCCTAGAAGGAATGATATTATCACTATTCATCATATCGACTCTAATTGTCCTAAACACACACTTCACCCTAGCTAACATAATACCCATTATTTTACTAGTGTTTGCAGCCTGCGAAGCTGCACTGGGCCTATCACTACTAGTAATAGTATCCAACACATACGGTACCGATTACGTCCAAAACTTAAACCTTTTACAATGCTAAAAATTATTATCCCAACAACAATACTACTACCCATAACATGAATATCTAAACACAACATAATCTGAATCAATGCAACAGTACATAGTCTCCTCATTAGCCTGATCAGTCTATCCCTACTAAACCAACTAGGCGAAAACAGCCTTAATTTTTCCTTAACATTCTTCTCCGACTCACTATCAGCACCCCTACTAGTTCTAACCACATGACTCCTCCCCCTTATACTAATAGCTAGCCAATCCCACCTATCAAAAGAAACCACAACCCGAAAAAAACTATATATTACCATACTAATCCTACTACAACTATTCCTAATTATAACCTTCACCGCCACCGAACTAATCTTATTCTATATCCTATTCGAAGCAACACTAGTACCCACACTAATCATCATCACACGCTGAGGAAACCAAACAGAACGACTCAATGCAGGACTTTATTTCCTATTCTACACCCTAGCAGGATCCCTACCACTGCTAGTAGCACTAGTTTATATCCAAAACACCACAGGCTCACTAAACTTCTTAATTATCCATTACTGATCCCACCCATTATCCAACTCTTGATCAAACATTTTTATATGATTAGCATGCATCATAGCCTTCATAGTAAAAATACCTCTGTACGGACTCCATCTTTGACTGCCAAAAGCCCATGTAGAAGCCCCTATTGCAGGTTCAATAGTACTTGCAGCCGTACTGCTAAAACTCGGAGGCTATGGCATAATGCGAATCACTACTATTCTAAACCCACTAACAAACTACATAGCCTATCCATTCCTCATGCTTTCCATATGAGGTATAATCATAACCAGCTCTATCTGCTTACGTCAAACCGACCTAAAATCCTTAATCGCTTATTCATCAGTAAGTCATATAGCACTTGTAATCGTAGCAATCATAATTCAAACCCCCTGAAGCTTCATAGGAGCCACAGCTCTCATAATTGCCCACGGACTAACATCCTCCATACTATTCTGCCTAGCCAACACTAACTATGAACGAGTACACAGCCGAACCATAATCCTAGCCCGAGGACTGCAAACACTCCTACCACTCATAGCAACATGATGACTAATAGCAAGCCTCACAAACCTAGCCCTACCCCCATCCATCAATCTAATCGGAGAATTATTTATCATTACAGCATCATTTTCATGATCCAACATCACAATTATTCTCATAGGAATAAACATAATAATTACAGCTCTCTACTCTCTCTACATACTAATTATTACACAACGAGGAAAATACACCCACCACATTAACAACATCAAACCCTCATTCACACGAGAAAACGCCCTCATAGCCCTACATATTCTACCACTACTACTACTGACCTTAAACCCTAAAATAATCCTAGGGCCCCTTTACTGTAGATATAGTTTAATAAAAACCCTAGATTGTGAATCTAGTAATAGAAAATTAAATATTCTTATCTACCGAAAAAGTTTGCAAGAACTGCTAACTCATGCTTCCACACTTAAAAATGTGGCTTTTTCAACTTTTAAAGGATAGCAGTTATCCGTTGGTCTTAGGAACCAAAAAATTGGTGCAACTCCAAATAAAAGTAATAAACCCATTCGCCTCACTCACATTAACCACACTGACTATTCTAACCATCCCAATTATAATATCCAACTCAAACATCTACAAAACTAACCTTTACCCTAATTACGTAAAAACCACCATATCCTACGCCTTCACTCTCAGCCTAGTCCCCTTACTAATATTTATACACACAGGCCAAGAAATAATCATTTCAAACTGACATTGAATAACCCTACAGACCGTAGAACTCTCTCTTAGCTTTAAAATAGACTATTTCTCAGTAATATTCATTCCCGTAGCACTATTCGTCACGTGATCAATTATAGAATTCTCCATATGATACATACACTCAGACCCCTTCATCAACCGATTCTTTAAATACCTACTACTATTCTTAATCACTATAATAATCCTCGTAACCGCCAACAACCTCTTCCAACTCTTTATCGGATGAGAAGGCGTAGGAATCATATCATTCCTGCTAATCGGATGATGACACGGACGAACAGACGCCAACACAGCTGCACTACAAGCAATCCTATACAACCGCATCGGAGACATTGGATTTGTCCTATCCATAGCATGATTCTTAACCCACTCAAACGCATGAGATTTTCAACAAATCTTTATACTAAACAATAAATGCCCAAACATACCATTAATCGGCCTACTCCTAGCTGCAGCAGGAAAATCAGCTCAATTCGGACTACATCCCTGATTGCCCTCAGCAATAGAAGGCCCAACTCCCGTATCAGCATTACTACACTCCAGTACAATAGTAGTAGCAGGGGTATTTCTACTCATCCGCTTCTACCCCTTAATAGAAACTAACAAACTAGTTCAAACCATAACACTATGCCTAGGAGCTATCACCACCTTATTTACAGCACTATGTGCAATCACACAAAATGATATCAAAAAAATCGTAGCCTTCTCAACTTCAAGCCAACTAGGCTTGATAATAGTGACAATCGGCATCAACCAACCCCACCTAGCATTTCTTCATATCTGCATGCACGCTTTCTTCAAAGCAATACTATTCATATGCTCCGGATCCATTATCCACAGCCTCAATGACGAACAAGACATCCGAAAAATAGGCGGACTGTATAAAGCAATACCATTCACAACAACAGCACTAATTATTGGAAGCCTGGCATTAACAGGAATGCCTTATCTCACAGGATTCTACTCAAAAGACCTTATCATTGAAGCAGCAAACATATCCTACACAAACGCCTGAGCCCTACTAATAACATTAATTGCCACATCCCTAACCGCTGCCTACAGCACTCGAATTATCTTCTTTGCATTCCTAGGGCAACCACGTTTCCCACCCCTAGTCCTAATTAATGAAAATAACCCCCTACTAATTAACTCTATTAAACGCCTTTTAATCGGAAGCATCTTCGCTGGCTTTATCATCTCCAACAACATCCCACCAATAACAGTACCAAACACAACAATACCCCTTTACATAAAAATAACAGCCCTAATCGTAACCATCATAGGATTCATACTAGCCCTAGAGCTAAACAACACAACCTACTACCTGAAATTTAAATACCCATCACAAACATACAAATTTTCCAACATACTAGGATATTATCCCTCCATCATACACCGCCTACCAACATACCACAACCTGTCTATAAGCCAAAAATCCGCATCATCATTACTAGACTTAATTTGACTAGAAACTATTCTACCAAAAACAACCTCTTTCATCCAAATAAAAATATCAATTATAGTATCAAATCAAAAAGGCCTAATCAAACTATACTTTCTCTCCTTCCTAATCACTATTATAATCAGCATAATACTATTTAATTACCACGAGTAATCTCCATAATAACAACAACTCCAATAAACAATGATCAACCAGTAACAATAACTAATCAAGTACCATAACTATATAAAGCAGCAATCCCCATAGCTTCCTCACTAAAAAACCCTGAATCACCCGTATCATAAATTACTCAATCCCCAAGCCCATTAAACTTAAAAATAATTTCTACTTCCTCTTCCTTCAATGCATAATAAACCATACAAAACTCCATTATTAAACCAGAAACAAATGCTCCAAAAACAGTCTTATTAGAAACTCAAACCTCAGGGTACATCTCAGTAGCCATGGCAGTAGTATAACCAAAAACCACTAACATACCCCCCAAATAAATCAAAAACACCATTAAACCTAAAAAAGACCCACCAAAATTCAATACAATACCACAACCAACTCCACCACTTACAATCAACCCAAGTCCACCATAAATAGGAGAGGGTTTAGAAGAAAAACCAACAAACCCAATAACAAAAATAGTACTTAAAATAAATGCAATATATATTGTCATTATTCTCACATGGAATCTAACCACGACCAATGATATGAAAAATCATCGTTGTACTTCAACTACAAGAACCTTAATGACCAACATCCGAAAATCACACCCACTAATAAAAATTATCAACAACGCATTCATTGACCTCCCAGCCCCCTCAAACATCTCATCATGATGAAACTTCGGTTCCCTCTTAGGCATCTGCCTAATCTTGCAAATCCTAACAGGCCTGTTCTTAGCAATACATTACACATCAGACACAACAACAGCTTTCTCATCAGTTACACACATCTGTCGAGACGTAAATTACGGATGAGTTATTCGCTACCTACATGCAAACGGAGCATCCATGTTCTTTATTTGCCTATTCATCCACGTAGGCCGAGGCCTATACTACGGATCCTATATATTCCTAGAAACATGAAACATTGGAGTAGTCCTACTATTTACCGTTATAGCAACAGCCTTCATAGGCTACGTCCTGCCCTGAGGACAAATATCATTCTGAGGAGCTACGGTCATCACAAATCTACTATCAGCTATCCCTTATATCGGAACAGACCTCGTAGAATGAATCTGAGGGGGCTTTTCCGTCGACAAAGCAACCCTCACACGATTCTTCGCCTTTCACTTTATCCTGCCATTCATCATTACCGCCCTCGCAGCCGTACATCTCCTATTCCTGCACGAAACCGGATCCAACAACCCTACCGGAATCTCATCAGACATAGACAAAATTCCATTTCACCCATACTACACTATTAAAGACATTCTAGGGGCCTTATTTATAATACTAATCCTACTAATCCTTGTACTATTCTCACCAGACCTACTAGGAGACCCAGACAACTACACCCCAGCAAACCCACTAAACACCCCACCCCATATTAAACCAGAATGATATTTCTTATTCGCCTACGCTATCCTACGTTCAATTCCTAATAAACTAGGTGGAGTGCTAGCTCTAGTAGCCTCCATCCTAATCCTAATTTTAATGCCCATACTACACACATCCAAACAACGAAGCATAATATTTCGACCACTAAGTCAATGCCTATTCTGAATACTAGTAGCAGACCTCATTACACTAACATGAATTGGAGGACAACCCGTAGAACACCCATTCATCATCATCGGCCAACTAGCCTCCATCTTATATTTCCTAATCATTCTAGTATTGATACCAATCACTAGCATCATCGAAAACAACCTATTAAAGTGAAGAGTCTTTGTAGTATATAAAATACCCTGGTCTTGTAAACCAGAAAAGGAGGACCACCCCTCCCCAAGACTCAAGGAAGGAGACTAACTCCGCCATCAGCACCCAAAGCTGAAATTCTAACTAAACTATTCCCTG'
p1076
sbsS'_per_letter_annotations'
p1077
g1
(cBio.SeqRecord
_RestrictedDict
p1078
c__builtin__
dict
p1079
(dtRp1080
(dp1081
S'_length'
p1082
I16480
sbsg102
S'NC_014692.1'
p1083
sS'name'
p1084
S'NC_014692'
p1085
sb.