(lp1
(lp2
I8352
aI8352
aI8352
aI8352
aI8352
aI8352
aI8352
aI8352
aI8336
aI8352
aI8352
aI8352
aI8352
aI8352
aa(lp3
I8352
aI8352
aI8352
aI8352
aI8352
aI8352
aI8352
aI8352
aI8336
aI8352
aI8352
aI8352
aI8352
aI8352
aa(lp4
I8352
aI8352
aI8352
aI8352
aI8352
aI8352
aI8352
aI8352
aI8336
aI8352
aI8352
aI8352
aI8352
aI8352
aa(lp5
I8352
aI8352
aI8352
aI8352
aI8352
aI8352
aI8352
aI8352
aI8336
aI8352
aI8352
aI8352
aI8352
aI8352
aa(lp6
I8352
aI8352
aI8352
aI8352
aI8352
aI8352
aI8352
aI8352
aI8336
aI8352
aI8352
aI8352
aI8352
aI8352
aa(lp7
I8352
aI8352
aI8352
aI8352
aI8352
aI8352
aI8352
aI8352
aI8336
aI8352
aI8352
aI8352
aI8352
aI8352
aa(lp8
I8352
aI8352
aI8352
aI8352
aI8352
aI8352
aI8352
aI8352
aI8336
aI8352
aI8352
aI8352
aI8352
aI8352
aa(lp9
I8352
aI8352
aI8352
aI8352
aI8352
aI8352
aI8352
aI8352
aI8336
aI8352
aI8352
aI8352
aI8352
aI8352
aa(lp10
I8336
aI8336
aI8336
aI8336
aI8336
aI8336
aI8336
aI8336
aI8320
aI8336
aI8336
aI8336
aI8336
aI8336
aa(lp11
I8352
aI8352
aI8352
aI8352
aI8352
aI8352
aI8352
aI8352
aI8336
aI8352
aI8352
aI8352
aI8352
aI8352
aa(lp12
I8352
aI8352
aI8352
aI8352
aI8352
aI8352
aI8352
aI8352
aI8336
aI8352
aI8352
aI8352
aI8352
aI8352
aa(lp13
I8352
aI8352
aI8352
aI8352
aI8352
aI8352
aI8352
aI8352
aI8336
aI8352
aI8352
aI8352
aI8352
aI8352
aa(lp14
I8352
aI8352
aI8352
aI8352
aI8352
aI8352
aI8352
aI8352
aI8336
aI8352
aI8352
aI8352
aI8352
aI8352
aa(lp15
I8352
aI8352
aI8352
aI8352
aI8352
aI8352
aI8352
aI8352
aI8336
aI8352
aI8352
aI8352
aI8352
aI8352
aa.