(lp1
(lp2
I1832
aI1593
aI1395
aI1446
aI1697
aI1706
aI1610
aI1633
aI1623
aI1635
aI1622
aI1692
aI1691
aI1590
aa(lp3
I1593
aI1824
aI1393
aI1463
aI1587
aI1599
aI1617
aI1617
aI1616
aI1625
aI1596
aI1588
aI1613
aI1750
aa(lp4
I1395
aI1393
aI1827
aI1384
aI1411
aI1417
aI1408
aI1405
aI1399
aI1404
aI1400
aI1416
aI1400
aI1397
aa(lp5
I1446
aI1463
aI1384
aI1796
aI1448
aI1469
aI1475
aI1467
aI1463
aI1465
aI1456
aI1452
aI1454
aI1458
aa(lp6
I1697
aI1587
aI1411
aI1448
aI1826
aI1699
aI1637
aI1654
aI1642
aI1636
aI1629
aI1643
aI1717
aI1581
aa(lp7
I1706
aI1599
aI1417
aI1469
aI1699
aI1815
aI1646
aI1658
aI1652
aI1643
aI1630
aI1676
aI1725
aI1592
aa(lp8
I1610
aI1617
aI1408
aI1475
aI1637
aI1646
aI1814
aI1772
aI1771
aI1764
aI1735
aI1647
aI1633
aI1582
aa(lp9
I1633
aI1617
aI1405
aI1467
aI1654
aI1658
aI1772
aI1823
aI1810
aI1780
aI1725
aI1656
aI1647
aI1589
aa(lp10
I1623
aI1616
aI1399
aI1463
aI1642
aI1652
aI1771
aI1810
aI1816
aI1779
aI1724
aI1650
aI1634
aI1583
aa(lp11
I1635
aI1625
aI1404
aI1465
aI1636
aI1643
aI1764
aI1780
aI1779
aI1820
aI1717
aI1671
aI1635
aI1595
aa(lp12
I1622
aI1596
aI1400
aI1456
aI1629
aI1630
aI1735
aI1725
aI1724
aI1717
aI1804
aI1633
aI1629
aI1579
aa(lp13
I1692
aI1588
aI1416
aI1452
aI1643
aI1676
aI1647
aI1656
aI1650
aI1671
aI1633
aI1816
aI1663
aI1582
aa(lp14
I1691
aI1613
aI1400
aI1454
aI1717
aI1725
aI1633
aI1647
aI1634
aI1635
aI1629
aI1663
aI1814
aI1606
aa(lp15
I1590
aI1750
aI1397
aI1458
aI1581
aI1592
aI1582
aI1589
aI1583
aI1595
aI1579
aI1582
aI1606
aI1826
aa.