(lp1
(lp2
I1832
aI1556
aI1296
aI1381
aI1682
aI1688
aI1570
aI1608
aI1096
aI1603
aI1567
aI1672
aI1671
aI1555
aa(lp3
I1556
aI1824
aI1305
aI1417
aI1553
aI1564
aI1583
aI1585
aI1085
aI1600
aI1551
aI1552
aI1581
aI1743
aa(lp4
I1296
aI1305
aI1827
aI1290
aI1329
aI1310
aI1307
aI1299
aI789
aI1291
aI1264
aI1320
aI1304
aI1305
aa(lp5
I1381
aI1417
aI1290
aI1796
aI1395
aI1410
aI1422
aI1406
aI906
aI1409
aI1386
aI1405
aI1400
aI1414
aa(lp6
I1682
aI1553
aI1329
aI1395
aI1826
aI1685
aI1607
aI1640
aI1126
aI1622
aI1580
aI1628
aI1704
aI1547
aa(lp7
I1688
aI1564
aI1310
aI1410
aI1685
aI1815
aI1608
aI1615
aI1115
aI1606
aI1585
aI1658
aI1717
aI1556
aa(lp8
I1570
aI1583
aI1307
aI1422
aI1607
aI1608
aI1814
aI1764
aI1264
aI1757
aI1727
aI1611
aI1602
aI1542
aa(lp9
I1608
aI1585
aI1299
aI1406
aI1640
aI1615
aI1764
aI1823
aI1309
aI1777
aI1713
aI1625
aI1621
aI1546
aa(lp10
I1096
aI1085
aI789
aI906
aI1126
aI1115
aI1264
aI1309
aI1816
aI1277
aI1213
aI1125
aI1107
aI1046
aa(lp11
I1603
aI1600
aI1291
aI1409
aI1622
aI1606
aI1757
aI1777
aI1277
aI1820
aI1703
aI1643
aI1612
aI1564
aa(lp12
I1567
aI1551
aI1264
aI1386
aI1580
aI1585
aI1727
aI1713
aI1213
aI1703
aI1804
aI1586
aI1586
aI1531
aa(lp13
I1672
aI1552
aI1320
aI1405
aI1628
aI1658
aI1611
aI1625
aI1125
aI1643
aI1586
aI1816
aI1645
aI1545
aa(lp14
I1671
aI1581
aI1304
aI1400
aI1704
aI1717
aI1602
aI1621
aI1107
aI1612
aI1586
aI1645
aI1814
aI1573
aa(lp15
I1555
aI1743
aI1305
aI1414
aI1547
aI1556
aI1542
aI1546
aI1046
aI1564
aI1531
aI1545
aI1573
aI1826
aa.